(imatplotlib.font_manager
FontManager
p1
(dp2
S'afm_lookup_cache'
p3
(dp4
sS'ttflist'
p5
(lp6
ccopy_reg
_reconstructor
p7
(cmatplotlib.font_manager
FontEntry
p8
c__builtin__
object
p9
NtRp10
(dp11
S'style'
p12
S'oblique'
p13
sS'name'
p14
S'Bitstream Vera Sans Mono'
p15
sS'weight'
p16
I700
sS'stretch'
p17
S'normal'
p18
sS'variant'
p19
g18
sS'fname'
p20
S'D:\\DATUMARO\\trabajo\\programas_repositorio\\integrador\\tags\\current\\standalone exes\\mpl-data\\fonts\\ttf\\VeraMoBI.ttf'
p21
sS'size'
p22
S'scalable'
p23
sbag7
(g8
g9
NtRp24
(dp25
g12
g18
sg14
S'STIXNonUnicode'
p26
sg16
I400
sg17
g18
sg19
g18
sg20
S'D:\\DATUMARO\\trabajo\\programas_repositorio\\integrador\\tags\\current\\standalone exes\\mpl-data\\fonts\\ttf\\STIXNonUni.ttf'
p27
sg22
g23
sbag7
(g8
g9
NtRp28
(dp29
g12
g18
sg14
S'cmss10'
p30
sg16
I400
sg17
g18
sg19
g18
sg20
S'D:\\DATUMARO\\trabajo\\programas_repositorio\\integrador\\tags\\current\\standalone exes\\mpl-data\\fonts\\ttf\\cmss10.ttf'
p31
sg22
g23
sbag7
(g8
g9
NtRp32
(dp33
g12
g18
sg14
S'STIXGeneral'
p34
sg16
I700
sg17
g18
sg19
g18
sg20
S'D:\\DATUMARO\\trabajo\\programas_repositorio\\integrador\\tags\\current\\standalone exes\\mpl-data\\fonts\\ttf\\STIXGeneralBol.ttf'
p35
sg22
g23
sbag7
(g8
g9
NtRp36
(dp37
g12
g18
sg14
S'Bitstream Vera Sans Mono'
p38
sg16
I700
sg17
g18
sg19
g18
sg20
S'D:\\DATUMARO\\trabajo\\programas_repositorio\\integrador\\tags\\current\\standalone exes\\mpl-data\\fonts\\ttf\\VeraMoBd.ttf'
p39
sg22
g23
sbag7
(g8
g9
NtRp40
(dp41
g12
g18
sg14
S'cmr10'
p42
sg16
I400
sg17
g18
sg19
g18
sg20
S'D:\\DATUMARO\\trabajo\\programas_repositorio\\integrador\\tags\\current\\standalone exes\\mpl-data\\fonts\\ttf\\cmr10.ttf'
p43
sg22
g23
sbag7
(g8
g9
NtRp44
(dp45
g12
g18
sg14
S'STIXSizeTwoSym'
p46
sg16
I700
sg17
g18
sg19
g18
sg20
S'D:\\DATUMARO\\trabajo\\programas_repositorio\\integrador\\tags\\current\\standalone exes\\mpl-data\\fonts\\ttf\\STIXSizTwoSymBol.ttf'
p47
sg22
g23
sbag7
(g8
g9
NtRp48
(dp49
g12
g18
sg14
S'STIXNonUnicode'
p50
sg16
I700
sg17
g18
sg19
g18
sg20
S'D:\\DATUMARO\\trabajo\\programas_repositorio\\integrador\\tags\\current\\standalone exes\\mpl-data\\fonts\\ttf\\STIXNonUniBol.ttf'
p51
sg22
g23
sbag7
(g8
g9
NtRp52
(dp53
g12
g18
sg14
S'cmb10'
p54
sg16
I400
sg17
g18
sg19
g18
sg20
S'D:\\DATUMARO\\trabajo\\programas_repositorio\\integrador\\tags\\current\\standalone exes\\mpl-data\\fonts\\ttf\\cmb10.ttf'
p55
sg22
g23
sbag7
(g8
g9
NtRp56
(dp57
g12
g18
sg14
S'STIXSizeFiveSym'
p58
sg16
I400
sg17
g18
sg19
g18
sg20
S'D:\\DATUMARO\\trabajo\\programas_repositorio\\integrador\\tags\\current\\standalone exes\\mpl-data\\fonts\\ttf\\STIXSizFiveSymReg.ttf'
p59
sg22
g23
sbag7
(g8
g9
NtRp60
(dp61
g12
g18
sg14
S'cmsy10'
p62
sg16
I400
sg17
g18
sg19
g18
sg20
S'D:\\DATUMARO\\trabajo\\programas_repositorio\\integrador\\tags\\current\\standalone exes\\mpl-data\\fonts\\ttf\\cmsy10.ttf'
p63
sg22
g23
sbag7
(g8
g9
NtRp64
(dp65
g12
g18
sg14
S'STIXSizeThreeSym'
p66
sg16
I400
sg17
g18
sg19
g18
sg20
S'D:\\DATUMARO\\trabajo\\programas_repositorio\\integrador\\tags\\current\\standalone exes\\mpl-data\\fonts\\ttf\\STIXSizThreeSymReg.ttf'
p67
sg22
g23
sbag7
(g8
g9
NtRp68
(dp69
g12
S'italic'
p70
sg14
S'STIXGeneral'
p71
sg16
I400
sg17
g18
sg19
g18
sg20
S'D:\\DATUMARO\\trabajo\\programas_repositorio\\integrador\\tags\\current\\standalone exes\\mpl-data\\fonts\\ttf\\STIXGeneralItalic.ttf'
p72
sg22
g23
sbag7
(g8
g9
NtRp73
(dp74
g12
g18
sg14
S'Bitstream Vera Sans'
p75
sg16
I700
sg17
g18
sg19
g18
sg20
S'D:\\DATUMARO\\trabajo\\programas_repositorio\\integrador\\tags\\current\\standalone exes\\mpl-data\\fonts\\ttf\\VeraBd.ttf'
p76
sg22
g23
sbag7
(g8
g9
NtRp77
(dp78
g12
g18
sg14
S'STIXSizeThreeSym'
p79
sg16
I700
sg17
g18
sg19
g18
sg20
S'D:\\DATUMARO\\trabajo\\programas_repositorio\\integrador\\tags\\current\\standalone exes\\mpl-data\\fonts\\ttf\\STIXSizThreeSymBol.ttf'
p80
sg22
g23
sbag7
(g8
g9
NtRp81
(dp82
g12
g18
sg14
S'Bitstream Vera Serif'
p83
sg16
I400
sg17
g18
sg19
g18
sg20
S'D:\\DATUMARO\\trabajo\\programas_repositorio\\integrador\\tags\\current\\standalone exes\\mpl-data\\fonts\\ttf\\VeraSe.ttf'
p84
sg22
g23
sbag7
(g8
g9
NtRp85
(dp86
g12
g13
sg14
S'Bitstream Vera Sans'
p87
sg16
I400
sg17
g18
sg19
g18
sg20
S'D:\\DATUMARO\\trabajo\\programas_repositorio\\integrador\\tags\\current\\standalone exes\\mpl-data\\fonts\\ttf\\VeraIt.ttf'
p88
sg22
g23
sbag7
(g8
g9
NtRp89
(dp90
g12
g18
sg14
S'Bitstream Vera Serif'
p91
sg16
I700
sg17
g18
sg19
g18
sg20
S'D:\\DATUMARO\\trabajo\\programas_repositorio\\integrador\\tags\\current\\standalone exes\\mpl-data\\fonts\\ttf\\VeraSeBd.ttf'
p92
sg22
g23
sbag7
(g8
g9
NtRp93
(dp94
g12
g13
sg14
S'Bitstream Vera Sans Mono'
p95
sg16
I400
sg17
g18
sg19
g18
sg20
S'D:\\DATUMARO\\trabajo\\programas_repositorio\\integrador\\tags\\current\\standalone exes\\mpl-data\\fonts\\ttf\\VeraMoIt.ttf'
p96
sg22
g23
sbag7
(g8
g9
NtRp97
(dp98
g12
g13
sg14
S'Bitstream Vera Sans'
p99
sg16
I700
sg17
g18
sg19
g18
sg20
S'D:\\DATUMARO\\trabajo\\programas_repositorio\\integrador\\tags\\current\\standalone exes\\mpl-data\\fonts\\ttf\\VeraBI.ttf'
p100
sg22
g23
sbag7
(g8
g9
NtRp101
(dp102
g12
g70
sg14
S'STIXNonUnicode'
p103
sg16
I700
sg17
g18
sg19
g18
sg20
S'D:\\DATUMARO\\trabajo\\programas_repositorio\\integrador\\tags\\current\\standalone exes\\mpl-data\\fonts\\ttf\\STIXNonUniBolIta.ttf'
p104
sg22
g23
sbag7
(g8
g9
NtRp105
(dp106
g12
g18
sg14
S'cmmi10'
p107
sg16
I400
sg17
g18
sg19
g18
sg20
S'D:\\DATUMARO\\trabajo\\programas_repositorio\\integrador\\tags\\current\\standalone exes\\mpl-data\\fonts\\ttf\\cmmi10.ttf'
p108
sg22
g23
sbag7
(g8
g9
NtRp109
(dp110
g12
g70
sg14
S'STIXGeneral'
p111
sg16
I700
sg17
g18
sg19
g18
sg20
S'D:\\DATUMARO\\trabajo\\programas_repositorio\\integrador\\tags\\current\\standalone exes\\mpl-data\\fonts\\ttf\\STIXGeneralBolIta.ttf'
p112
sg22
g23
sbag7
(g8
g9
NtRp113
(dp114
g12
g18
sg14
S'STIXSizeFourSym'
p115
sg16
I700
sg17
g18
sg19
g18
sg20
S'D:\\DATUMARO\\trabajo\\programas_repositorio\\integrador\\tags\\current\\standalone exes\\mpl-data\\fonts\\ttf\\STIXSizFourSymBol.ttf'
p116
sg22
g23
sbag7
(g8
g9
NtRp117
(dp118
g12
g70
sg14
S'STIXNonUnicode'
p119
sg16
I400
sg17
g18
sg19
g18
sg20
S'D:\\DATUMARO\\trabajo\\programas_repositorio\\integrador\\tags\\current\\standalone exes\\mpl-data\\fonts\\ttf\\STIXNonUniIta.ttf'
p120
sg22
g23
sbag7
(g8
g9
NtRp121
(dp122
g12
g18
sg14
S'STIXGeneral'
p123
sg16
I400
sg17
g18
sg19
g18
sg20
S'D:\\DATUMARO\\trabajo\\programas_repositorio\\integrador\\tags\\current\\standalone exes\\mpl-data\\fonts\\ttf\\STIXGeneral.ttf'
p124
sg22
g23
sbag7
(g8
g9
NtRp125
(dp126
g12
g18
sg14
S'STIXSizeFourSym'
p127
sg16
I400
sg17
g18
sg19
g18
sg20
S'D:\\DATUMARO\\trabajo\\programas_repositorio\\integrador\\tags\\current\\standalone exes\\mpl-data\\fonts\\ttf\\STIXSizFourSymReg.ttf'
p128
sg22
g23
sbag7
(g8
g9
NtRp129
(dp130
g12
g18
sg14
S'STIXSizeTwoSym'
p131
sg16
I400
sg17
g18
sg19
g18
sg20
S'D:\\DATUMARO\\trabajo\\programas_repositorio\\integrador\\tags\\current\\standalone exes\\mpl-data\\fonts\\ttf\\STIXSizTwoSymReg.ttf'
p132
sg22
g23
sbag7
(g8
g9
NtRp133
(dp134
g12
g18
sg14
S'cmex10'
p135
sg16
I400
sg17
g18
sg19
g18
sg20
S'D:\\DATUMARO\\trabajo\\programas_repositorio\\integrador\\tags\\current\\standalone exes\\mpl-data\\fonts\\ttf\\cmex10.ttf'
p136
sg22
g23
sbag7
(g8
g9
NtRp137
(dp138
g12
g18
sg14
S'STIXSizeOneSym'
p139
sg16
I400
sg17
g18
sg19
g18
sg20
S'D:\\DATUMARO\\trabajo\\programas_repositorio\\integrador\\tags\\current\\standalone exes\\mpl-data\\fonts\\ttf\\STIXSizOneSymReg.ttf'
p140
sg22
g23
sbag7
(g8
g9
NtRp141
(dp142
g12
g18
sg14
S'Bitstream Vera Sans'
p143
sg16
I400
sg17
g18
sg19
g18
sg20
S'D:\\DATUMARO\\trabajo\\programas_repositorio\\integrador\\tags\\current\\standalone exes\\mpl-data\\fonts\\ttf\\Vera.ttf'
p144
sg22
g23
sbag7
(g8
g9
NtRp145
(dp146
g12
g18
sg14
S'STIXSizeOneSym'
p147
sg16
I700
sg17
g18
sg19
g18
sg20
S'D:\\DATUMARO\\trabajo\\programas_repositorio\\integrador\\tags\\current\\standalone exes\\mpl-data\\fonts\\ttf\\STIXSizOneSymBol.ttf'
p148
sg22
g23
sbag7
(g8
g9
NtRp149
(dp150
g12
g18
sg14
S'cmtt10'
p151
sg16
I400
sg17
g18
sg19
g18
sg20
S'D:\\DATUMARO\\trabajo\\programas_repositorio\\integrador\\tags\\current\\standalone exes\\mpl-data\\fonts\\ttf\\cmtt10.ttf'
p152
sg22
g23
sbag7
(g8
g9
NtRp153
(dp154
g12
g18
sg14
S'Bitstream Vera Sans Mono'
p155
sg16
I400
sg17
g18
sg19
g18
sg20
S'D:\\DATUMARO\\trabajo\\programas_repositorio\\integrador\\tags\\current\\standalone exes\\mpl-data\\fonts\\ttf\\VeraMono.ttf'
p156
sg22
g23
sbag7
(g8
g9
NtRp157
(dp158
g12
g18
sg14
S'Courier New'
p159
sg16
I400
sg17
g18
sg19
g18
sg20
S'C:\\Windows\\Fonts\\cour.ttf'
p160
sg22
g23
sbag7
(g8
g9
NtRp161
(dp162
g12
g18
sg14
S'Footlight MT Light'
p163
sg16
I200
sg17
g18
sg19
g18
sg20
S'c:\\windows\\fonts\\ftltlt.ttf'
p164
sg22
g23
sbag7
(g8
g9
NtRp165
(dp166
g12
g70
sg14
S'Browallia New'
p167
sg16
I400
sg17
g18
sg19
g18
sg20
S'c:\\windows\\fonts\\browai.ttf'
p168
sg22
g23
sbag7
(g8
g9
NtRp169
(dp170
g12
g18
sg14
S'Stencil'
p171
sg16
I400
sg17
g18
sg19
g18
sg20
S'C:\\Windows\\Fonts\\STENCIL.TTF'
p172
sg22
g23
sbag7
(g8
g9
NtRp173
(dp174
g12
g18
sg14
S'Cambria'
p175
sg16
I700
sg17
g18
sg19
g18
sg20
S'c:\\windows\\fonts\\cambriab.ttf'
p176
sg22
g23
sbag7
(g8
g9
NtRp177
(dp178
g12
g70
sg14
S'Verdana'
p179
sg16
I700
sg17
g18
sg19
g18
sg20
S'C:\\Windows\\Fonts\\verdanaz.ttf'
p180
sg22
g23
sbag7
(g8
g9
NtRp181
(dp182
g12
g70
sg14
S'Palatino Linotype'
p183
sg16
I700
sg17
g18
sg19
g18
sg20
S'C:\\Windows\\Fonts\\palabi.ttf'
p184
sg22
g23
sbag7
(g8
g9
NtRp185
(dp186
g12
g70
sg14
S'JasmineUPC'
p187
sg16
I400
sg17
g18
sg19
g18
sg20
S'c:\\windows\\fonts\\upcji.ttf'
p188
sg22
g23
sbag7
(g8
g9
NtRp189
(dp190
g12
g18
sg14
S'Microsoft Tai Le'
p191
sg16
I700
sg17
g18
sg19
g18
sg20
S'C:\\Windows\\Fonts\\taileb.ttf'
p192
sg22
g23
sbag7
(g8
g9
NtRp193
(dp194
g12
g18
sg14
S'Trebuchet MS'
p195
sg16
I700
sg17
g18
sg19
g18
sg20
S'c:\\windows\\fonts\\trebucbd.ttf'
p196
sg22
g23
sbag7
(g8
g9
NtRp197
(dp198
g12
g18
sg14
S'Tahoma'
p199
sg16
I700
sg17
g18
sg19
g18
sg20
S'C:\\Windows\\Fonts\\tahomabd.ttf'
p200
sg22
g23
sbag7
(g8
g9
NtRp201
(dp202
g12
g70
sg14
S'Bell MT'
p203
sg16
I400
sg17
g18
sg19
g18
sg20
S'c:\\windows\\fonts\\belli.ttf'
p204
sg22
g23
sbag7
(g8
g9
NtRp205
(dp206
g12
g70
sg14
S'Bodoni MT'
p207
sg16
I900
sg17
g18
sg19
g18
sg20
S'c:\\windows\\fonts\\bod_blai.ttf'
p208
sg22
g23
sbag7
(g8
g9
NtRp209
(dp210
g12
g18
sg14
S'Copperplate Gothic Bold'
p211
sg16
I700
sg17
g18
sg19
g18
sg20
S'C:\\Windows\\Fonts\\COPRGTB.TTF'
p212
sg22
g23
sbag7
(g8
g9
NtRp213
(dp214
g12
g70
sg14
S'Elephant'
p215
sg16
I400
sg17
g18
sg19
g18
sg20
S'C:\\Windows\\Fonts\\ELEPHNTI.TTF'
p216
sg22
g23
sbag7
(g8
g9
NtRp217
(dp218
g12
g18
sg14
S'BrowalliaUPC'
p219
sg16
I400
sg17
g18
sg19
g18
sg20
S'c:\\windows\\fonts\\browau.ttf'
p220
sg22
g23
sbag7
(g8
g9
NtRp221
(dp222
g12
g18
sg14
S'KaiTi'
p223
sg16
I400
sg17
g18
sg19
g18
sg20
S'c:\\windows\\fonts\\simkai.ttf'
p224
sg22
g23
sbag7
(g8
g9
NtRp225
(dp226
g12
g18
sg14
S'Ubuntu'
p227
sg16
I400
sg17
g18
sg19
g18
sg20
S'C:\\Windows\\Fonts\\Ubuntu-R.ttf'
p228
sg22
g23
sbag7
(g8
g9
NtRp229
(dp230
g12
g18
sg14
S'Franklin Gothic Demi'
p231
sg16
I600
sg17
g18
sg19
g18
sg20
S'c:\\windows\\fonts\\fradm.ttf'
p232
sg22
g23
sbag7
(g8
g9
NtRp233
(dp234
g12
g70
sg14
S'Trebuchet MS'
p235
sg16
I700
sg17
g18
sg19
g18
sg20
S'c:\\windows\\fonts\\trebucbi.ttf'
p236
sg22
g23
sbag7
(g8
g9
NtRp237
(dp238
g12
g18
sg14
S'Monotype Corsiva'
p239
sg16
I400
sg17
g18
sg19
g18
sg20
S'c:\\windows\\fonts\\mtcorsva.ttf'
p240
sg22
g23
sbag7
(g8
g9
NtRp241
(dp242
g12
g70
sg14
S'Segoe UI'
p243
sg16
I700
sg17
g18
sg19
g18
sg20
S'c:\\windows\\fonts\\segoeuiz.ttf'
p244
sg22
g23
sbag7
(g8
g9
NtRp245
(dp246
g12
g18
sg14
S'Bodoni MT'
p247
sg16
I400
sg17
S'condensed'
p248
sg19
g18
sg20
S'c:\\windows\\fonts\\bod_cr.ttf'
p249
sg22
g23
sbag7
(g8
g9
NtRp250
(dp251
g12
g70
sg14
S'Bodoni MT'
p252
sg16
I700
sg17
g18
sg19
g18
sg20
S'c:\\windows\\fonts\\bod_bi.ttf'
p253
sg22
g23
sbag7
(g8
g9
NtRp254
(dp255
g12
g70
sg14
S'Gill Sans MT'
p256
sg16
I400
sg17
g18
sg19
g18
sg20
S'c:\\windows\\fonts\\gili____.ttf'
p257
sg22
g23
sbag7
(g8
g9
NtRp258
(dp259
g12
g18
sg14
S'Kunstler Script'
p260
sg16
I400
sg17
g18
sg19
g18
sg20
S'C:\\Windows\\Fonts\\KUNSTLER.TTF'
p261
sg22
g23
sbag7
(g8
g9
NtRp262
(dp263
g12
g70
sg14
S'BrowalliaUPC'
p264
sg16
I700
sg17
g18
sg19
g18
sg20
S'c:\\windows\\fonts\\browauz.ttf'
p265
sg22
g23
sbag7
(g8
g9
NtRp266
(dp267
g12
g18
sg14
S'Malgun Gothic'
p268
sg16
I700
sg17
g18
sg19
g18
sg20
S'C:\\Windows\\Fonts\\malgunbd.ttf'
p269
sg22
g23
sbag7
(g8
g9
NtRp270
(dp271
g12
g18
sg14
S'Imprint MT Shadow'
p272
sg16
I400
sg17
g18
sg19
g18
sg20
S'c:\\windows\\fonts\\imprisha.ttf'
p273
sg22
g23
sbag7
(g8
g9
NtRp274
(dp275
g12
g18
sg14
S'DokChampa'
p276
sg16
I400
sg17
g18
sg19
g18
sg20
S'C:\\Windows\\Fonts\\dokchamp.ttf'
p277
sg22
g23
sbag7
(g8
g9
NtRp278
(dp279
g12
g18
sg14
S'Curlz MT'
p280
sg16
I400
sg17
g18
sg19
g18
sg20
S'C:\\Windows\\Fonts\\CURLZ___.TTF'
p281
sg22
g23
sbag7
(g8
g9
NtRp282
(dp283
g12
g70
sg14
S'Arial'
p284
sg16
I400
sg17
g18
sg19
g18
sg20
S'c:\\windows\\fonts\\ariali.ttf'
p285
sg22
g23
sbag7
(g8
g9
NtRp286
(dp287
g12
g18
sg14
S'Tw Cen MT'
p288
sg16
I400
sg17
g18
sg19
g18
sg20
S'c:\\windows\\fonts\\tcm_____.ttf'
p289
sg22
g23
sbag7
(g8
g9
NtRp290
(dp291
g12
g18
sg14
S'Khmer UI'
p292
sg16
I700
sg17
g18
sg19
g18
sg20
S'c:\\windows\\fonts\\khmeruib.ttf'
p293
sg22
g23
sbag7
(g8
g9
NtRp294
(dp295
g12
g18
sg14
S'Tw Cen MT Condensed'
p296
sg16
I700
sg17
g248
sg19
g18
sg20
S'c:\\windows\\fonts\\tccb____.ttf'
p297
sg22
g23
sbag7
(g8
g9
NtRp298
(dp299
g12
g18
sg14
S'Simplified Arabic'
p300
sg16
I400
sg17
g18
sg19
g18
sg20
S'c:\\windows\\fonts\\simpo.ttf'
p301
sg22
g23
sbag7
(g8
g9
NtRp302
(dp303
g12
g18
sg14
S'Arabic Typesetting'
p304
sg16
I400
sg17
g18
sg19
g18
sg20
S'c:\\windows\\fonts\\arabtype.ttf'
p305
sg22
g23
sbag7
(g8
g9
NtRp306
(dp307
g12
g18
sg14
S'Kartika'
p308
sg16
I700
sg17
g18
sg19
g18
sg20
S'C:\\Windows\\Fonts\\kartikab.ttf'
p309
sg22
g23
sbag7
(g8
g9
NtRp310
(dp311
g12
g18
sg14
S'Khmer UI'
p312
sg16
I400
sg17
g18
sg19
g18
sg20
S'c:\\windows\\fonts\\khmerui.ttf'
p313
sg22
g23
sbag7
(g8
g9
NtRp314
(dp315
g12
g18
sg14
S'Segoe UI'
p316
sg16
I400
sg17
g18
sg19
g18
sg20
S'c:\\windows\\fonts\\seguisb.ttf'
p317
sg22
g23
sbag7
(g8
g9
NtRp318
(dp319
g12
g18
sg14
S'Kalinga'
p320
sg16
I400
sg17
g18
sg19
g18
sg20
S'C:\\Windows\\Fonts\\kalinga.ttf'
p321
sg22
g23
sbag7
(g8
g9
NtRp322
(dp323
g12
g18
sg14
S'Kokila'
p324
sg16
I700
sg17
g18
sg19
g18
sg20
S'C:\\Windows\\Fonts\\kokilab.ttf'
p325
sg22
g23
sbag7
(g8
g9
NtRp326
(dp327
g12
g18
sg14
S'Franklin Gothic Heavy'
p328
sg16
I800
sg17
g18
sg19
g18
sg20
S'C:\\Windows\\Fonts\\FRAHV.TTF'
p329
sg22
g23
sbag7
(g8
g9
NtRp330
(dp331
g12
g18
sg14
S'Calibri'
p332
sg16
I200
sg17
g18
sg19
g18
sg20
S'C:\\Windows\\Fonts\\calibril.ttf'
p333
sg22
g23
sbag7
(g8
g9
NtRp334
(dp335
g12
g18
sg14
S'Cordia New'
p336
sg16
I700
sg17
g18
sg19
g18
sg20
S'C:\\Windows\\Fonts\\cordiab.ttf'
p337
sg22
g23
sbag7
(g8
g9
NtRp338
(dp339
g12
g18
sg14
S'Gautami'
p340
sg16
I700
sg17
g18
sg19
g18
sg20
S'C:\\Windows\\Fonts\\gautamib.ttf'
p341
sg22
g23
sbag7
(g8
g9
NtRp342
(dp343
g12
g18
sg14
S'Euphemia'
p344
sg16
I400
sg17
g18
sg19
g18
sg20
S'C:\\Windows\\Fonts\\euphemia.ttf'
p345
sg22
g23
sbag7
(g8
g9
NtRp346
(dp347
g12
g70
sg14
S'Georgia'
p348
sg16
I400
sg17
g18
sg19
g18
sg20
S'C:\\Windows\\Fonts\\georgiai.ttf'
p349
sg22
g23
sbag7
(g8
g9
NtRp350
(dp351
g12
g18
sg14
S'Leelawadee'
p352
sg16
I700
sg17
g18
sg19
g18
sg20
S'C:\\Windows\\Fonts\\leelawdb.ttf'
p353
sg22
g23
sbag7
(g8
g9
NtRp354
(dp355
g12
g18
sg14
S'Pristina'
p356
sg16
I400
sg17
g18
sg19
g18
sg20
S'c:\\windows\\fonts\\pristina.ttf'
p357
sg22
g23
sbag7
(g8
g9
NtRp358
(dp359
g12
g18
sg14
S'Onyx'
p360
sg16
I400
sg17
g18
sg19
g18
sg20
S'C:\\Windows\\Fonts\\ONYX.TTF'
p361
sg22
g23
sbag7
(g8
g9
NtRp362
(dp363
g12
g18
sg14
S'Baskerville Old Face'
p364
sg16
I400
sg17
g18
sg19
g18
sg20
S'C:\\Windows\\Fonts\\BASKVILL.TTF'
p365
sg22
g23
sbag7
(g8
g9
NtRp366
(dp367
g12
g13
sg14
S'Lucida Sans Typewriter'
p368
sg16
I400
sg17
g18
sg19
g18
sg20
S'C:\\Windows\\Fonts\\LTYPEO.TTF'
p369
sg22
g23
sbag7
(g8
g9
NtRp370
(dp371
g12
g18
sg14
S'Microsoft Himalaya'
p372
sg16
I400
sg17
g18
sg19
g18
sg20
S'C:\\Windows\\Fonts\\himalaya.ttf'
p373
sg22
g23
sbag7
(g8
g9
NtRp374
(dp375
g12
g18
sg14
S'Cordia New'
p376
sg16
I400
sg17
g18
sg19
g18
sg20
S'C:\\Windows\\Fonts\\cordia.ttf'
p377
sg22
g23
sbag7
(g8
g9
NtRp378
(dp379
g12
g70
sg14
S'Californian FB'
p380
sg16
I400
sg17
g18
sg19
g18
sg20
S'c:\\windows\\fonts\\califi.ttf'
p381
sg22
g23
sbag7
(g8
g9
NtRp382
(dp383
g12
g18
sg14
S'Segoe UI'
p384
sg16
I400
sg17
g18
sg19
g18
sg20
S'c:\\windows\\fonts\\segoeuil.ttf'
p385
sg22
g23
sbag7
(g8
g9
NtRp386
(dp387
g12
g18
sg14
S'Consolas'
p388
sg16
I400
sg17
g18
sg19
g18
sg20
S'c:\\windows\\fonts\\consola.ttf'
p389
sg22
g23
sbag7
(g8
g9
NtRp390
(dp391
g12
g18
sg14
S'Samarkan'
p392
sg16
I400
sg17
g18
sg19
g18
sg20
S'c:\\windows\\fonts\\samarn.ttf'
p393
sg22
g23
sbag7
(g8
g9
NtRp394
(dp395
g12
g70
sg14
S'Angsana New'
p396
sg16
I400
sg17
g18
sg19
g18
sg20
S'C:\\Windows\\Fonts\\angsai.ttf'
p397
sg22
g23
sbag7
(g8
g9
NtRp398
(dp399
g12
g18
sg14
S'FreesiaUPC'
p400
sg16
I700
sg17
g18
sg19
g18
sg20
S'C:\\Windows\\Fonts\\upcfb.ttf'
p401
sg22
g23
sbag7
(g8
g9
NtRp402
(dp403
g12
g18
sg14
S'Arial'
p404
sg16
I700
sg17
g18
sg19
g18
sg20
S'c:\\windows\\fonts\\arialbd.ttf'
p405
sg22
g23
sbag7
(g8
g9
NtRp406
(dp407
g12
g18
sg14
S'Sakkal Majalla'
p408
sg16
I400
sg17
g18
sg19
g18
sg20
S'C:\\Windows\\Fonts\\majalla.ttf'
p409
sg22
g23
sbag7
(g8
g9
NtRp410
(dp411
g12
g18
sg14
S'Microsoft YaHei'
p412
sg16
I400
sg17
g18
sg19
g18
sg20
S'c:\\windows\\fonts\\msyh.ttf'
p413
sg22
g23
sbag7
(g8
g9
NtRp414
(dp415
g12
g18
sg14
S'Tunga'
p416
sg16
I400
sg17
g18
sg19
g18
sg20
S'C:\\Windows\\Fonts\\tunga.ttf'
p417
sg22
g23
sbag7
(g8
g9
NtRp418
(dp419
g12
g18
sg14
S'Lucida Fax'
p420
sg16
I700
sg17
g18
sg19
g18
sg20
S'c:\\windows\\fonts\\lfaxd.ttf'
p421
sg22
g23
sbag7
(g8
g9
NtRp422
(dp423
g12
g70
sg14
S'Cambria'
p424
sg16
I700
sg17
g18
sg19
g18
sg20
S'C:\\Windows\\Fonts\\cambriaz.ttf'
p425
sg22
g23
sbag7
(g8
g9
NtRp426
(dp427
g12
g70
sg14
S'Constantia'
p428
sg16
I700
sg17
g18
sg19
g18
sg20
S'C:\\Windows\\Fonts\\constanz.ttf'
p429
sg22
g23
sbag7
(g8
g9
NtRp430
(dp431
g12
g70
sg14
S'IrisUPC'
p432
sg16
I700
sg17
g18
sg19
g18
sg20
S'C:\\Windows\\Fonts\\upcibi.ttf'
p433
sg22
g23
sbag7
(g8
g9
NtRp434
(dp435
g12
g18
sg14
S'Maiandra GD'
p436
sg16
I400
sg17
g18
sg19
g18
sg20
S'c:\\windows\\fonts\\maian.ttf'
p437
sg22
g23
sbag7
(g8
g9
NtRp438
(dp439
g12
g18
sg14
S'Narkisim'
p440
sg16
I400
sg17
g18
sg19
g18
sg20
S'C:\\Windows\\Fonts\\nrkis.ttf'
p441
sg22
g23
sbag7
(g8
g9
NtRp442
(dp443
g12
g18
sg14
S'Microsoft JhengHei'
p444
sg16
I700
sg17
g18
sg19
g18
sg20
S'c:\\windows\\fonts\\msjhbd.ttf'
p445
sg22
g23
sbag7
(g8
g9
NtRp446
(dp447
g12
g70
sg14
S'Segoe UI'
p448
sg16
I400
sg17
g18
sg19
g18
sg20
S'C:\\Windows\\Fonts\\segoeuii.ttf'
p449
sg22
g23
sbag7
(g8
g9
NtRp450
(dp451
g12
g18
sg14
S'MV Boli'
p452
sg16
I400
sg17
g18
sg19
g18
sg20
S'C:\\Windows\\Fonts\\mvboli.ttf'
p453
sg22
g23
sbag7
(g8
g9
NtRp454
(dp455
g12
g18
sg14
S'Segoe UI'
p456
sg16
I400
sg17
g18
sg19
g18
sg20
S'c:\\windows\\fonts\\segoeui.ttf'
p457
sg22
g23
sbag7
(g8
g9
NtRp458
(dp459
g12
g18
sg14
S'Levenim MT'
p460
sg16
I700
sg17
g18
sg19
g18
sg20
S'C:\\Windows\\Fonts\\lvnmbd.ttf'
p461
sg22
g23
sbag7
(g8
g9
NtRp462
(dp463
g12
g18
sg14
S'Lucida Sans Typewriter'
p464
sg16
I700
sg17
g18
sg19
g18
sg20
S'C:\\Windows\\Fonts\\LTYPEB.TTF'
p465
sg22
g23
sbag7
(g8
g9
NtRp466
(dp467
g12
g18
sg14
S'Calisto MT'
p468
sg16
I700
sg17
g18
sg19
g18
sg20
S'C:\\Windows\\Fonts\\CALISTB.TTF'
p469
sg22
g23
sbag7
(g8
g9
NtRp470
(dp471
g12
g70
sg14
S'Book Antiqua'
p472
sg16
I700
sg17
g18
sg19
g18
sg20
S'c:\\windows\\fonts\\antquabi.ttf'
p473
sg22
g23
sbag7
(g8
g9
NtRp474
(dp475
g12
g70
sg14
S'Tw Cen MT'
p476
sg16
I400
sg17
g18
sg19
g18
sg20
S'C:\\Windows\\Fonts\\TCMI____.TTF'
p477
sg22
g23
sbag7
(g8
g9
NtRp478
(dp479
g12
g70
sg14
S'High Tower Text'
p480
sg16
I400
sg17
g18
sg19
g18
sg20
S'C:\\Windows\\Fonts\\HTOWERTI.TTF'
p481
sg22
g23
sbag7
(g8
g9
NtRp482
(dp483
g12
g18
sg14
S'Lucida Sans'
p484
sg16
I400
sg17
g18
sg19
g18
sg20
S'C:\\Windows\\Fonts\\LSANS.TTF'
p485
sg22
g23
sbag7
(g8
g9
NtRp486
(dp487
g12
g18
sg14
S'Kristen ITC'
p488
sg16
I400
sg17
g18
sg19
g18
sg20
S'C:\\Windows\\Fonts\\ITCKRIST.TTF'
p489
sg22
g23
sbag7
(g8
g9
NtRp490
(dp491
g12
g18
sg14
S'Marlett'
p492
sg16
I400
sg17
g18
sg19
g18
sg20
S'C:\\Windows\\Fonts\\marlett.ttf'
p493
sg22
g23
sbag7
(g8
g9
NtRp494
(dp495
g12
g18
sg14
S'Browallia New'
p496
sg16
I700
sg17
g18
sg19
g18
sg20
S'c:\\windows\\fonts\\browab.ttf'
p497
sg22
g23
sbag7
(g8
g9
NtRp498
(dp499
g12
g18
sg14
S'Corbel'
p500
sg16
I700
sg17
g18
sg19
g18
sg20
S'c:\\windows\\fonts\\corbelb.ttf'
p501
sg22
g23
sbag7
(g8
g9
NtRp502
(dp503
g12
g18
sg14
S'Californian FB'
p504
sg16
I700
sg17
g18
sg19
g18
sg20
S'c:\\windows\\fonts\\califb.ttf'
p505
sg22
g23
sbag7
(g8
g9
NtRp506
(dp507
g12
g18
sg14
S'Simplified Arabic'
p508
sg16
I700
sg17
g18
sg19
g18
sg20
S'c:\\windows\\fonts\\simpbdo.ttf'
p509
sg22
g23
sbag7
(g8
g9
NtRp510
(dp511
g12
g18
sg14
S'Franklin Gothic Book'
p512
sg16
I400
sg17
g18
sg19
g18
sg20
S'C:\\Windows\\Fonts\\FRABK.TTF'
p513
sg22
g23
sbag7
(g8
g9
NtRp514
(dp515
g12
g18
sg14
S'Khmer UI'
p516
sg16
I700
sg17
g18
sg19
g18
sg20
S'C:\\Windows\\Fonts\\KhmerUIb.ttf'
p517
sg22
g23
sbag7
(g8
g9
NtRp518
(dp519
g12
g18
sg14
S'Informal Roman'
p520
sg16
I500
sg17
g18
sg19
g18
sg20
S'c:\\windows\\fonts\\infroman.ttf'
p521
sg22
g23
sbag7
(g8
g9
NtRp522
(dp523
g12
g18
sg14
S'LilyUPC'
p524
sg16
I400
sg17
g18
sg19
g18
sg20
S'C:\\Windows\\Fonts\\upcll.ttf'
p525
sg22
g23
sbag7
(g8
g9
NtRp526
(dp527
g12
g18
sg14
S'Agency FB'
p528
sg16
I700
sg17
g18
sg19
g18
sg20
S'c:\\windows\\fonts\\agencyb.ttf'
p529
sg22
g23
sbag7
(g8
g9
NtRp530
(dp531
g12
g70
sg14
S'FreesiaUPC'
p532
sg16
I700
sg17
g18
sg19
g18
sg20
S'C:\\Windows\\Fonts\\upcfbi.ttf'
p533
sg22
g23
sbag7
(g8
g9
NtRp534
(dp535
g12
g18
sg14
S'Arial Rounded MT Bold'
p536
sg16
I700
sg17
g18
sg19
g18
sg20
S'C:\\Windows\\Fonts\\ARLRDBD.TTF'
p537
sg22
g23
sbag7
(g8
g9
NtRp538
(dp539
g12
g18
sg14
S'Cooper Black'
p540
sg16
I900
sg17
g18
sg19
g18
sg20
S'c:\\windows\\fonts\\coopbl.ttf'
p541
sg22
g23
sbag7
(g8
g9
NtRp542
(dp543
g12
g13
sg14
S'Lucida Sans Typewriter'
p544
sg16
I700
sg17
g18
sg19
g18
sg20
S'c:\\windows\\fonts\\ltypebo.ttf'
p545
sg22
g23
sbag7
(g8
g9
NtRp546
(dp547
g12
g18
sg14
S'Vrinda'
p548
sg16
I700
sg17
g18
sg19
g18
sg20
S'C:\\Windows\\Fonts\\vrindab.ttf'
p549
sg22
g23
sbag7
(g8
g9
NtRp550
(dp551
g12
g18
sg14
S'Kalinga'
p552
sg16
I700
sg17
g18
sg19
g18
sg20
S'C:\\Windows\\Fonts\\kalingab.ttf'
p553
sg22
g23
sbag7
(g8
g9
NtRp554
(dp555
g12
g70
sg14
S'Calibri'
p556
sg16
I400
sg17
g18
sg19
g18
sg20
S'C:\\Windows\\Fonts\\calibrii.ttf'
p557
sg22
g23
sbag7
(g8
g9
NtRp558
(dp559
g12
g70
sg14
S'Ubuntu'
p560
sg16
I200
sg17
g18
sg19
g18
sg20
S'c:\\windows\\fonts\\ubuntu-li.ttf'
p561
sg22
g23
sbag7
(g8
g9
NtRp562
(dp563
g12
g70
sg14
S'Franklin Gothic Medium'
p564
sg16
I500
sg17
g18
sg19
g18
sg20
S'C:\\Windows\\Fonts\\framdit.ttf'
p565
sg22
g23
sbag7
(g8
g9
NtRp566
(dp567
g12
g70
sg14
S'Utsaah'
p568
sg16
I400
sg17
g18
sg19
g18
sg20
S'c:\\windows\\fonts\\utsaahi.ttf'
p569
sg22
g23
sbag7
(g8
g9
NtRp570
(dp571
g12
g18
sg14
S'Modern No. 20'
p572
sg16
I400
sg17
g18
sg19
g18
sg20
S'c:\\windows\\fonts\\mod20.ttf'
p573
sg22
g23
sbag7
(g8
g9
NtRp574
(dp575
g12
g70
sg14
S'Century Schoolbook'
p576
sg16
I700
sg17
g18
sg19
g18
sg20
S'c:\\windows\\fonts\\schlbkbi.ttf'
p577
sg22
g23
sbag7
(g8
g9
NtRp578
(dp579
g12
g18
sg14
S'DFKai-SB'
p580
sg16
I400
sg17
g18
sg19
g18
sg20
S'C:\\Windows\\Fonts\\kaiu.ttf'
p581
sg22
g23
sbag7
(g8
g9
NtRp582
(dp583
g12
g18
sg14
S'OCR A Extended'
p584
sg16
I400
sg17
g18
sg19
g18
sg20
S'c:\\windows\\fonts\\ocraext.ttf'
p585
sg22
g23
sbag7
(g8
g9
NtRp586
(dp587
g12
g70
sg14
S'AngsanaUPC'
p588
sg16
I700
sg17
g18
sg19
g18
sg20
S'c:\\windows\\fonts\\angsauz.ttf'
p589
sg22
g23
sbag7
(g8
g9
NtRp590
(dp591
g12
g18
sg14
S'Shonar Bangla'
p592
sg16
I400
sg17
g18
sg19
g18
sg20
S'c:\\windows\\fonts\\shonar.ttf'
p593
sg22
g23
sbag7
(g8
g9
NtRp594
(dp595
g12
g18
sg14
S'Goudy Old Style'
p596
sg16
I700
sg17
g18
sg19
g18
sg20
S'C:\\Windows\\Fonts\\GOUDOSB.TTF'
p597
sg22
g23
sbag7
(g8
g9
NtRp598
(dp599
g12
g70
sg14
S'Lucida Sans'
p600
sg16
I400
sg17
g18
sg19
g18
sg20
S'c:\\windows\\fonts\\lsansi.ttf'
p601
sg22
g23
sbag7
(g8
g9
NtRp602
(dp603
g12
g70
sg14
S'KodchiangUPC'
p604
sg16
I400
sg17
g18
sg19
g18
sg20
S'C:\\Windows\\Fonts\\upcki.ttf'
p605
sg22
g23
sbag7
(g8
g9
NtRp606
(dp607
g12
g18
sg14
S'Utsaah'
p608
sg16
I700
sg17
g18
sg19
g18
sg20
S'C:\\Windows\\Fonts\\utsaahb.ttf'
p609
sg22
g23
sbag7
(g8
g9
NtRp610
(dp611
g12
g18
sg14
S'Eras Medium ITC'
p612
sg16
I500
sg17
g18
sg19
g18
sg20
S'c:\\windows\\fonts\\erasmd.ttf'
p613
sg22
g23
sbag7
(g8
g9
NtRp614
(dp615
g12
g70
sg14
S'Verdana'
p616
sg16
I400
sg17
g18
sg19
g18
sg20
S'c:\\windows\\fonts\\verdanai.ttf'
p617
sg22
g23
sbag7
(g8
g9
NtRp618
(dp619
g12
g18
sg14
S'Jokerman'
p620
sg16
I400
sg17
g18
sg19
g18
sg20
S'C:\\Windows\\Fonts\\JOKERMAN.TTF'
p621
sg22
g23
sbag7
(g8
g9
NtRp622
(dp623
g12
g18
sg14
S'Constantia'
p624
sg16
I700
sg17
g18
sg19
g18
sg20
S'C:\\Windows\\Fonts\\constanb.ttf'
p625
sg22
g23
sbag7
(g8
g9
NtRp626
(dp627
g12
g70
sg14
S'Franklin Gothic Demi'
p628
sg16
I600
sg17
g18
sg19
g18
sg20
S'c:\\windows\\fonts\\fradmit.ttf'
p629
sg22
g23
sbag7
(g8
g9
NtRp630
(dp631
g12
g18
sg14
S'Wingdings 2'
p632
sg16
I400
sg17
g18
sg19
g18
sg20
S'C:\\Windows\\Fonts\\WINGDNG2.TTF'
p633
sg22
g23
sbag7
(g8
g9
NtRp634
(dp635
g12
g18
sg14
S'Utsaah'
p636
sg16
I400
sg17
g18
sg19
g18
sg20
S'c:\\windows\\fonts\\utsaah.ttf'
p637
sg22
g23
sbag7
(g8
g9
NtRp638
(dp639
g12
g18
sg14
S'Microsoft YaHei'
p640
sg16
I700
sg17
g18
sg19
g18
sg20
S'c:\\windows\\fonts\\msyhbd.ttf'
p641
sg22
g23
sbag7
(g8
g9
NtRp642
(dp643
g12
g18
sg14
S'Symbol'
p644
sg16
I400
sg17
g18
sg19
g18
sg20
S'c:\\windows\\fonts\\symbol.ttf'
p645
sg22
g23
sbag7
(g8
g9
NtRp646
(dp647
g12
g70
sg14
S'Rockwell'
p648
sg16
I400
sg17
g18
sg19
g18
sg20
S'C:\\Windows\\Fonts\\ROCKI.TTF'
p649
sg22
g23
sbag7
(g8
g9
NtRp650
(dp651
g12
g70
sg14
S'Bodoni MT'
p652
sg16
I900
sg17
g18
sg19
g18
sg20
S'C:\\Windows\\Fonts\\BOD_BLAI.TTF'
p653
sg22
g23
sbag7
(g8
g9
NtRp654
(dp655
g12
g70
sg14
S'Calisto MT'
p656
sg16
I400
sg17
g18
sg19
g18
sg20
S'c:\\windows\\fonts\\calisti.ttf'
p657
sg22
g23
sbag7
(g8
g9
NtRp658
(dp659
g12
g18
sg14
S'Sylfaen'
p660
sg16
I400
sg17
g18
sg19
g18
sg20
S'c:\\windows\\fonts\\sylfaen.ttf'
p661
sg22
g23
sbag7
(g8
g9
NtRp662
(dp663
g12
g18
sg14
S'Rockwell Condensed'
p664
sg16
I700
sg17
g248
sg19
g18
sg20
S'c:\\windows\\fonts\\roccb___.ttf'
p665
sg22
g23
sbag7
(g8
g9
NtRp666
(dp667
g12
g18
sg14
S'Lucida Sans'
p668
sg16
I700
sg17
g18
sg19
g18
sg20
S'C:\\Windows\\Fonts\\LSANSD.TTF'
p669
sg22
g23
sbag7
(g8
g9
NtRp670
(dp671
g12
g70
sg14
S'Calibri'
p672
sg16
I700
sg17
g18
sg19
g18
sg20
S'C:\\Windows\\Fonts\\calibriz.ttf'
p673
sg22
g23
sbag7
(g8
g9
NtRp674
(dp675
g12
g18
sg14
S'Aharoni'
p676
sg16
I700
sg17
g18
sg19
g18
sg20
S'c:\\windows\\fonts\\ahronbd.ttf'
p677
sg22
g23
sbag7
(g8
g9
NtRp678
(dp679
g12
g70
sg14
S'Ubuntu'
p680
sg16
I400
sg17
g18
sg19
g18
sg20
S'C:\\Windows\\Fonts\\Ubuntu-RI.ttf'
p681
sg22
g23
sbag7
(g8
g9
NtRp682
(dp683
g12
g70
sg14
S'JasmineUPC'
p684
sg16
I700
sg17
g18
sg19
g18
sg20
S'C:\\Windows\\Fonts\\upcjbi.ttf'
p685
sg22
g23
sbag7
(g8
g9
NtRp686
(dp687
g12
g18
sg14
S'Eras Medium ITC'
p688
sg16
I500
sg17
g18
sg19
g18
sg20
S'C:\\Windows\\Fonts\\ERASMD.TTF'
p689
sg22
g23
sbag7
(g8
g9
NtRp690
(dp691
g12
g70
sg14
S'Century Schoolbook'
p692
sg16
I400
sg17
g18
sg19
g18
sg20
S'c:\\windows\\fonts\\schlbki.ttf'
p693
sg22
g23
sbag7
(g8
g9
NtRp694
(dp695
g12
g18
sg14
S'EucrosiaUPC'
p696
sg16
I400
sg17
g18
sg19
g18
sg20
S'c:\\windows\\fonts\\upcel.ttf'
p697
sg22
g23
sbag7
(g8
g9
NtRp698
(dp699
g12
g18
sg14
S'Book Antiqua'
p700
sg16
I400
sg17
g18
sg19
g18
sg20
S'C:\\Windows\\Fonts\\BKANT.TTF'
p701
sg22
g23
sbag7
(g8
g9
NtRp702
(dp703
g12
g18
sg14
S'Angsana New'
p704
sg16
I700
sg17
g18
sg19
g18
sg20
S'C:\\Windows\\Fonts\\angsab.ttf'
p705
sg22
g23
sbag7
(g8
g9
NtRp706
(dp707
g12
g18
sg14
S'MoolBoran'
p708
sg16
I400
sg17
g18
sg19
g18
sg20
S'c:\\windows\\fonts\\moolbor.ttf'
p709
sg22
g23
sbag7
(g8
g9
NtRp710
(dp711
g12
g18
sg14
S'Arial'
p712
sg16
I400
sg17
g248
sg19
g18
sg20
S'C:\\Windows\\Fonts\\ARIALN.TTF'
p713
sg22
g23
sbag7
(g8
g9
NtRp714
(dp715
g12
g18
sg14
S'KodchiangUPC'
p716
sg16
I400
sg17
g18
sg19
g18
sg20
S'c:\\windows\\fonts\\upckl.ttf'
p717
sg22
g23
sbag7
(g8
g9
NtRp718
(dp719
g12
g70
sg14
S'AngsanaUPC'
p720
sg16
I400
sg17
g18
sg19
g18
sg20
S'c:\\windows\\fonts\\angsaui.ttf'
p721
sg22
g23
sbag7
(g8
g9
NtRp722
(dp723
g12
g18
sg14
S'Franklin Gothic Demi Cond'
p724
sg16
I600
sg17
g248
sg19
g18
sg20
S'C:\\Windows\\Fonts\\FRADMCN.TTF'
p725
sg22
g23
sbag7
(g8
g9
NtRp726
(dp727
g12
g70
sg14
S'Book Antiqua'
p728
sg16
I700
sg17
g18
sg19
g18
sg20
S'C:\\Windows\\Fonts\\ANTQUABI.TTF'
p729
sg22
g23
sbag7
(g8
g9
NtRp730
(dp731
g12
g18
sg14
S'Microsoft Tai Le'
p732
sg16
I400
sg17
g18
sg19
g18
sg20
S'C:\\Windows\\Fonts\\taile.ttf'
p733
sg22
g23
sbag7
(g8
g9
NtRp734
(dp735
g12
g70
sg14
S'Century Schoolbook'
p736
sg16
I700
sg17
g18
sg19
g18
sg20
S'C:\\Windows\\Fonts\\SCHLBKBI.TTF'
p737
sg22
g23
sbag7
(g8
g9
NtRp738
(dp739
g12
g18
sg14
S'Bernard MT Condensed'
p740
sg16
I400
sg17
g248
sg19
g18
sg20
S'C:\\Windows\\Fonts\\BERNHC.TTF'
p741
sg22
g23
sbag7
(g8
g9
NtRp742
(dp743
g12
g70
sg14
S'EucrosiaUPC'
p744
sg16
I700
sg17
g18
sg19
g18
sg20
S'C:\\Windows\\Fonts\\upcebi.ttf'
p745
sg22
g23
sbag7
(g8
g9
NtRp746
(dp747
g12
g70
sg14
S'Bookman Old Style'
p748
sg16
I400
sg17
g18
sg19
g18
sg20
S'c:\\windows\\fonts\\bookosi.ttf'
p749
sg22
g23
sbag7
(g8
g9
NtRp750
(dp751
g12
g18
sg14
S'Lucida Fax'
p752
sg16
I700
sg17
g18
sg19
g18
sg20
S'C:\\Windows\\Fonts\\LFAXD.TTF'
p753
sg22
g23
sbag7
(g8
g9
NtRp754
(dp755
g12
g18
sg14
S'Gloucester MT Extra Condensed'
p756
sg16
I400
sg17
g248
sg19
g18
sg20
S'c:\\windows\\fonts\\glecb.ttf'
p757
sg22
g23
sbag7
(g8
g9
NtRp758
(dp759
g12
g18
sg14
S'Chiller'
p760
sg16
I400
sg17
g18
sg19
g18
sg20
S'C:\\Windows\\Fonts\\CHILLER.TTF'
p761
sg22
g23
sbag7
(g8
g9
NtRp762
(dp763
g12
g18
sg14
S'Gill Sans Ultra Bold Condensed'
p764
sg16
I700
sg17
g248
sg19
g18
sg20
S'C:\\Windows\\Fonts\\GILLUBCD.TTF'
p765
sg22
g23
sbag7
(g8
g9
NtRp766
(dp767
g12
g70
sg14
S'FreesiaUPC'
p768
sg16
I400
sg17
g18
sg19
g18
sg20
S'c:\\windows\\fonts\\upcfi.ttf'
p769
sg22
g23
sbag7
(g8
g9
NtRp770
(dp771
g12
g18
sg14
S'Franklin Gothic Medium'
p772
sg16
I500
sg17
g18
sg19
g18
sg20
S'C:\\Windows\\Fonts\\framd.ttf'
p773
sg22
g23
sbag7
(g8
g9
NtRp774
(dp775
g12
g70
sg14
S'Lucida Sans'
p776
sg16
I400
sg17
g18
sg19
g18
sg20
S'C:\\Windows\\Fonts\\LSANSI.TTF'
p777
sg22
g23
sbag7
(g8
g9
NtRp778
(dp779
g12
g18
sg14
S'ZWAdobeF'
p780
sg16
I400
sg17
g18
sg19
g18
sg20
S'C:\\Windows\\Fonts\\ZWAdobeF.TTF'
p781
sg22
g23
sbag7
(g8
g9
NtRp782
(dp783
g12
g70
sg14
S'KodchiangUPC'
p784
sg16
I700
sg17
g18
sg19
g18
sg20
S'C:\\Windows\\Fonts\\upckbi.ttf'
p785
sg22
g23
sbag7
(g8
g9
NtRp786
(dp787
g12
g18
sg14
S'Ubuntu Mono'
p788
sg16
I700
sg17
g18
sg19
g18
sg20
S'C:\\Windows\\Fonts\\UbuntuMono-B.ttf'
p789
sg22
g23
sbag7
(g8
g9
NtRp790
(dp791
g12
g18
sg14
S'Calibri'
p792
sg16
I400
sg17
g18
sg19
g18
sg20
S'c:\\windows\\fonts\\calibri.ttf'
p793
sg22
g23
sbag7
(g8
g9
NtRp794
(dp795
g12
g18
sg14
S'Felix Titling'
p796
sg16
I400
sg17
g18
sg19
g18
sg20
S'C:\\Windows\\Fonts\\FELIXTI.TTF'
p797
sg22
g23
sbag7
(g8
g9
NtRp798
(dp799
g12
g18
sg14
S'Vladimir Script'
p800
sg16
I400
sg17
g18
sg19
g18
sg20
S'C:\\Windows\\Fonts\\VLADIMIR.TTF'
p801
sg22
g23
sbag7
(g8
g9
NtRp802
(dp803
g12
g18
sg14
S'Impact'
p804
sg16
I400
sg17
g18
sg19
g18
sg20
S'C:\\Windows\\Fonts\\impact.ttf'
p805
sg22
g23
sbag7
(g8
g9
NtRp806
(dp807
g12
g18
sg14
S'Ubuntu'
p808
sg16
I500
sg17
g18
sg19
g18
sg20
S'c:\\windows\\fonts\\ubuntu-m.ttf'
p809
sg22
g23
sbag7
(g8
g9
NtRp810
(dp811
g12
g18
sg14
S'IrisUPC'
p812
sg16
I400
sg17
g18
sg19
g18
sg20
S'c:\\windows\\fonts\\upcil.ttf'
p813
sg22
g23
sbag7
(g8
g9
NtRp814
(dp815
g12
g18
sg14
S'Broadway'
p816
sg16
I400
sg17
g18
sg19
g18
sg20
S'C:\\Windows\\Fonts\\BROADW.TTF'
p817
sg22
g23
sbag7
(g8
g9
NtRp818
(dp819
g12
g18
sg14
S'Colonna MT'
p820
sg16
I400
sg17
g18
sg19
g18
sg20
S'C:\\Windows\\Fonts\\COLONNA.TTF'
p821
sg22
g23
sbag7
(g8
g9
NtRp822
(dp823
g12
g18
sg14
S'Gill Sans MT'
p824
sg16
I700
sg17
g18
sg19
g18
sg20
S'C:\\Windows\\Fonts\\GILB____.TTF'
p825
sg22
g23
sbag7
(g8
g9
NtRp826
(dp827
g12
g18
sg14
S'Wingdings'
p828
sg16
I400
sg17
g18
sg19
g18
sg20
S'C:\\Windows\\Fonts\\wingding.ttf'
p829
sg22
g23
sbag7
(g8
g9
NtRp830
(dp831
g12
g70
sg14
S'Calisto MT'
p832
sg16
I400
sg17
g18
sg19
g18
sg20
S'C:\\Windows\\Fonts\\CALISTI.TTF'
p833
sg22
g23
sbag7
(g8
g9
NtRp834
(dp835
g12
g18
sg14
S'Latha'
p836
sg16
I400
sg17
g18
sg19
g18
sg20
S'c:\\windows\\fonts\\latha.ttf'
p837
sg22
g23
sbag7
(g8
g9
NtRp838
(dp839
g12
g70
sg14
S'Cambria'
p840
sg16
I400
sg17
g18
sg19
g18
sg20
S'c:\\windows\\fonts\\cambriai.ttf'
p841
sg22
g23
sbag7
(g8
g9
NtRp842
(dp843
g12
g18
sg14
S'Mangal'
p844
sg16
I700
sg17
g18
sg19
g18
sg20
S'C:\\Windows\\Fonts\\mangalb.ttf'
p845
sg22
g23
sbag7
(g8
g9
NtRp846
(dp847
g12
g18
sg14
S'Kartika'
p848
sg16
I400
sg17
g18
sg19
g18
sg20
S'C:\\Windows\\Fonts\\kartika.ttf'
p849
sg22
g23
sbag7
(g8
g9
NtRp850
(dp851
g12
g18
sg14
S'Vani'
p852
sg16
I400
sg17
g18
sg19
g18
sg20
S'c:\\windows\\fonts\\vani.ttf'
p853
sg22
g23
sbag7
(g8
g9
NtRp854
(dp855
g12
g18
sg14
S'Arial Rounded MT Bold'
p856
sg16
I700
sg17
g18
sg19
g18
sg20
S'c:\\windows\\fonts\\arlrdbd.ttf'
p857
sg22
g23
sbag7
(g8
g9
NtRp858
(dp859
g12
g18
sg14
S'DilleniaUPC'
p860
sg16
I400
sg17
g18
sg19
g18
sg20
S'c:\\windows\\fonts\\upcdl.ttf'
p861
sg22
g23
sbag7
(g8
g9
NtRp862
(dp863
g12
g70
sg14
S'Calisto MT'
p864
sg16
I700
sg17
g18
sg19
g18
sg20
S'C:\\Windows\\Fonts\\CALISTBI.TTF'
p865
sg22
g23
sbag7
(g8
g9
NtRp866
(dp867
g12
g18
sg14
S'Bernard MT Condensed'
p868
sg16
I400
sg17
g248
sg19
g18
sg20
S'c:\\windows\\fonts\\bernhc.ttf'
p869
sg22
g23
sbag7
(g8
g9
NtRp870
(dp871
g12
g18
sg14
S'Monotype Corsiva'
p872
sg16
I400
sg17
g18
sg19
g18
sg20
S'C:\\Windows\\Fonts\\MTCORSVA.TTF'
p873
sg22
g23
sbag7
(g8
g9
NtRp874
(dp875
g12
g18
sg14
S'Lucida Sans Unicode'
p876
sg16
I400
sg17
g18
sg19
g18
sg20
S'C:\\Windows\\Fonts\\l_10646.ttf'
p877
sg22
g23
sbag7
(g8
g9
NtRp878
(dp879
g12
g18
sg14
S'Castellar'
p880
sg16
I400
sg17
g18
sg19
g18
sg20
S'c:\\windows\\fonts\\castelar.ttf'
p881
sg22
g23
sbag7
(g8
g9
NtRp882
(dp883
g12
g18
sg14
S'Magneto'
p884
sg16
I700
sg17
g18
sg19
g18
sg20
S'c:\\windows\\fonts\\magnetob.ttf'
p885
sg22
g23
sbag7
(g8
g9
NtRp886
(dp887
g12
g18
sg14
S'Ubuntu Condensed'
p888
sg16
I400
sg17
g248
sg19
g18
sg20
S'c:\\windows\\fonts\\ubuntu-c.ttf'
p889
sg22
g23
sbag7
(g8
g9
NtRp890
(dp891
g12
g18
sg14
S'Script MT Bold'
p892
sg16
I700
sg17
g18
sg19
g18
sg20
S'C:\\Windows\\Fonts\\SCRIPTBL.TTF'
p893
sg22
g23
sbag7
(g8
g9
NtRp894
(dp895
g12
g18
sg14
S'Berlin Sans FB Demi'
p896
sg16
I700
sg17
g18
sg19
g18
sg20
S'C:\\Windows\\Fonts\\BRLNSDB.TTF'
p897
sg22
g23
sbag7
(g8
g9
NtRp898
(dp899
g12
g18
sg14
S'Arial Unicode MS'
p900
sg16
I400
sg17
g18
sg19
g18
sg20
S'c:\\windows\\fonts\\arialuni.ttf'
p901
sg22
g23
sbag7
(g8
g9
NtRp902
(dp903
g12
g70
sg14
S'Aparajita'
p904
sg16
I700
sg17
g18
sg19
g18
sg20
S'c:\\windows\\fonts\\aparajbi.ttf'
p905
sg22
g23
sbag7
(g8
g9
NtRp906
(dp907
g12
g18
sg14
S'Ebrima'
p908
sg16
I700
sg17
g18
sg19
g18
sg20
S'c:\\windows\\fonts\\ebrimabd.ttf'
p909
sg22
g23
sbag7
(g8
g9
NtRp910
(dp911
g12
g18
sg14
S'Segoe Print'
p912
sg16
I400
sg17
g18
sg19
g18
sg20
S'C:\\Windows\\Fonts\\segoepr.ttf'
p913
sg22
g23
sbag7
(g8
g9
NtRp914
(dp915
g12
g18
sg14
S'Microsoft Sans Serif'
p916
sg16
I400
sg17
g18
sg19
g18
sg20
S'C:\\Windows\\Fonts\\micross.ttf'
p917
sg22
g23
sbag7
(g8
g9
NtRp918
(dp919
g12
g18
sg14
S'Gill Sans Ultra Bold Condensed'
p920
sg16
I700
sg17
g248
sg19
g18
sg20
S'c:\\windows\\fonts\\gillubcd.ttf'
p921
sg22
g23
sbag7
(g8
g9
NtRp922
(dp923
g12
g18
sg14
S'Wingdings 3'
p924
sg16
I400
sg17
g18
sg19
g18
sg20
S'C:\\Windows\\Fonts\\WINGDNG3.TTF'
p925
sg22
g23
sbag7
(g8
g9
NtRp926
(dp927
g12
g70
sg14
S'Kokila'
p928
sg16
I700
sg17
g18
sg19
g18
sg20
S'C:\\Windows\\Fonts\\kokilabi.ttf'
p929
sg22
g23
sbag7
(g8
g9
NtRp930
(dp931
g12
g70
sg14
S'Gill Sans MT'
p932
sg16
I700
sg17
g18
sg19
g18
sg20
S'C:\\Windows\\Fonts\\GILBI___.TTF'
p933
sg22
g23
sbag7
(g8
g9
NtRp934
(dp935
g12
g18
sg14
S'Palace Script MT'
p936
sg16
I400
sg17
g18
sg19
g18
sg20
S'C:\\Windows\\Fonts\\PALSCRI.TTF'
p937
sg22
g23
sbag7
(g8
g9
NtRp938
(dp939
g12
g18
sg14
S'Segoe Print'
p940
sg16
I700
sg17
g18
sg19
g18
sg20
S'C:\\Windows\\Fonts\\segoeprb.ttf'
p941
sg22
g23
sbag7
(g8
g9
NtRp942
(dp943
g12
g18
sg14
S'FreesiaUPC'
p944
sg16
I400
sg17
g18
sg19
g18
sg20
S'C:\\Windows\\Fonts\\upcfl.ttf'
p945
sg22
g23
sbag7
(g8
g9
NtRp946
(dp947
g12
g70
sg14
S'Perpetua'
p948
sg16
I400
sg17
g18
sg19
g18
sg20
S'c:\\windows\\fonts\\peri____.ttf'
p949
sg22
g23
sbag7
(g8
g9
NtRp950
(dp951
g12
g18
sg14
S'Miriam Fixed'
p952
sg16
I400
sg17
g18
sg19
g18
sg20
S'c:\\windows\\fonts\\mriamc.ttf'
p953
sg22
g23
sbag7
(g8
g9
NtRp954
(dp955
g12
g70
sg14
S'IrisUPC'
p956
sg16
I400
sg17
g18
sg19
g18
sg20
S'c:\\windows\\fonts\\upcii.ttf'
p957
sg22
g23
sbag7
(g8
g9
NtRp958
(dp959
g12
g18
sg14
S'Copperplate Gothic Light'
p960
sg16
I200
sg17
g18
sg19
g18
sg20
S'c:\\windows\\fonts\\coprgtl.ttf'
p961
sg22
g23
sbag7
(g8
g9
NtRp962
(dp963
g12
g70
sg14
S'Tw Cen MT'
p964
sg16
I400
sg17
g18
sg19
g18
sg20
S'c:\\windows\\fonts\\tcmi____.ttf'
p965
sg22
g23
sbag7
(g8
g9
NtRp966
(dp967
g12
g70
sg14
S'Cordia New'
p968
sg16
I700
sg17
g18
sg19
g18
sg20
S'C:\\Windows\\Fonts\\cordiaz.ttf'
p969
sg22
g23
sbag7
(g8
g9
NtRp970
(dp971
g12
g18
sg14
S'Times New Roman'
p972
sg16
I500
sg17
g18
sg19
g18
sg20
S'c:\\windows\\fonts\\times.ttf'
p973
sg22
g23
sbag7
(g8
g9
NtRp974
(dp975
g12
g18
sg14
S'Wingdings 2'
p976
sg16
I400
sg17
g18
sg19
g18
sg20
S'c:\\windows\\fonts\\wingdng2.ttf'
p977
sg22
g23
sbag7
(g8
g9
NtRp978
(dp979
g12
g18
sg14
S'Consolas'
p980
sg16
I700
sg17
g18
sg19
g18
sg20
S'c:\\windows\\fonts\\consolab.ttf'
p981
sg22
g23
sbag7
(g8
g9
NtRp982
(dp983
g12
g18
sg14
S'Ubuntu'
p984
sg16
I500
sg17
g18
sg19
g18
sg20
S'C:\\Windows\\Fonts\\Ubuntu-M.ttf'
p985
sg22
g23
sbag7
(g8
g9
NtRp986
(dp987
g12
g18
sg14
S'Ubuntu'
p988
sg16
I400
sg17
g18
sg19
g18
sg20
S'c:\\windows\\fonts\\ubuntu-r.ttf'
p989
sg22
g23
sbag7
(g8
g9
NtRp990
(dp991
g12
g18
sg14
S'Vijaya'
p992
sg16
I700
sg17
g18
sg19
g18
sg20
S'c:\\windows\\fonts\\vijayab.ttf'
p993
sg22
g23
sbag7
(g8
g9
NtRp994
(dp995
g12
g70
sg14
S'Courier New'
p996
sg16
I400
sg17
g18
sg19
g18
sg20
S'c:\\windows\\fonts\\couri.ttf'
p997
sg22
g23
sbag7
(g8
g9
NtRp998
(dp999
g12
g18
sg14
S'Shruti'
p1000
sg16
I700
sg17
g18
sg19
g18
sg20
S'C:\\Windows\\Fonts\\shrutib.ttf'
p1001
sg22
g23
sbag7
(g8
g9
NtRp1002
(dp1003
g12
g70
sg14
S'CordiaUPC'
p1004
sg16
I700
sg17
g18
sg19
g18
sg20
S'c:\\windows\\fonts\\cordiauz.ttf'
p1005
sg22
g23
sbag7
(g8
g9
NtRp1006
(dp1007
g12
g18
sg14
S'Leelawadee'
p1008
sg16
I400
sg17
g18
sg19
g18
sg20
S'c:\\windows\\fonts\\leelawad.ttf'
p1009
sg22
g23
sbag7
(g8
g9
NtRp1010
(dp1011
g12
g18
sg14
S'Arial'
p1012
sg16
I400
sg17
g18
sg19
g18
sg20
S'c:\\windows\\fonts\\arial.ttf'
p1013
sg22
g23
sbag7
(g8
g9
NtRp1014
(dp1015
g12
g70
sg14
S'Bodoni MT'
p1016
sg16
I400
sg17
g18
sg19
g18
sg20
S'c:\\windows\\fonts\\bod_i.ttf'
p1017
sg22
g23
sbag7
(g8
g9
NtRp1018
(dp1019
g12
g18
sg14
S'Shonar Bangla'
p1020
sg16
I700
sg17
g18
sg19
g18
sg20
S'c:\\windows\\fonts\\shonarb.ttf'
p1021
sg22
g23
sbag7
(g8
g9
NtRp1022
(dp1023
g12
g70
sg14
S'Consolas'
p1024
sg16
I400
sg17
g18
sg19
g18
sg20
S'C:\\Windows\\Fonts\\consolai.ttf'
p1025
sg22
g23
sbag7
(g8
g9
NtRp1026
(dp1027
g12
g18
sg14
S'Engravers MT'
p1028
sg16
I400
sg17
g18
sg19
g18
sg20
S'c:\\windows\\fonts\\engr.ttf'
p1029
sg22
g23
sbag7
(g8
g9
NtRp1030
(dp1031
g12
g70
sg14
S'Lucida Fax'
p1032
sg16
I700
sg17
g18
sg19
g18
sg20
S'C:\\Windows\\Fonts\\LFAXDI.TTF'
p1033
sg22
g23
sbag7
(g8
g9
NtRp1034
(dp1035
g12
g18
sg14
S'Century Gothic'
p1036
sg16
I400
sg17
g18
sg19
g18
sg20
S'C:\\Windows\\Fonts\\GOTHIC.TTF'
p1037
sg22
g23
sbag7
(g8
g9
NtRp1038
(dp1039
g12
g18
sg14
S'Bauhaus 93'
p1040
sg16
I400
sg17
g18
sg19
g18
sg20
S'C:\\Windows\\Fonts\\BAUHS93.TTF'
p1041
sg22
g23
sbag7
(g8
g9
NtRp1042
(dp1043
g12
g18
sg14
S'Haettenschweiler'
p1044
sg16
I400
sg17
g18
sg19
g18
sg20
S'C:\\Windows\\Fonts\\HATTEN.TTF'
p1045
sg22
g23
sbag7
(g8
g9
NtRp1046
(dp1047
g12
g70
sg14
S'Book Antiqua'
p1048
sg16
I400
sg17
g18
sg19
g18
sg20
S'c:\\windows\\fonts\\antquai.ttf'
p1049
sg22
g23
sbag7
(g8
g9
NtRp1050
(dp1051
g12
g18
sg14
S'MS Reference Sans Serif'
p1052
sg16
I400
sg17
g18
sg19
g18
sg20
S'c:\\windows\\fonts\\refsan.ttf'
p1053
sg22
g23
sbag7
(g8
g9
NtRp1054
(dp1055
g12
g18
sg14
S'Bookman Old Style'
p1056
sg16
I700
sg17
g18
sg19
g18
sg20
S'c:\\windows\\fonts\\bookosb.ttf'
p1057
sg22
g23
sbag7
(g8
g9
NtRp1058
(dp1059
g12
g18
sg14
S'BrowalliaUPC'
p1060
sg16
I700
sg17
g18
sg19
g18
sg20
S'c:\\windows\\fonts\\browaub.ttf'
p1061
sg22
g23
sbag7
(g8
g9
NtRp1062
(dp1063
g12
g70
sg14
S'DilleniaUPC'
p1064
sg16
I700
sg17
g18
sg19
g18
sg20
S'c:\\windows\\fonts\\upcdbi.ttf'
p1065
sg22
g23
sbag7
(g8
g9
NtRp1066
(dp1067
g12
g18
sg14
S'Felix Titling'
p1068
sg16
I400
sg17
g18
sg19
g18
sg20
S'c:\\windows\\fonts\\felixti.ttf'
p1069
sg22
g23
sbag7
(g8
g9
NtRp1070
(dp1071
g12
g18
sg14
S'Centaur'
p1072
sg16
I400
sg17
g18
sg19
g18
sg20
S'c:\\windows\\fonts\\centaur.ttf'
p1073
sg22
g23
sbag7
(g8
g9
NtRp1074
(dp1075
g12
g70
sg14
S'Kokila'
p1076
sg16
I400
sg17
g18
sg19
g18
sg20
S'C:\\Windows\\Fonts\\kokilai.ttf'
p1077
sg22
g23
sbag7
(g8
g9
NtRp1078
(dp1079
g12
g18
sg14
S'Segoe Script'
p1080
sg16
I400
sg17
g18
sg19
g18
sg20
S'C:\\Windows\\Fonts\\segoesc.ttf'
p1081
sg22
g23
sbag7
(g8
g9
NtRp1082
(dp1083
g12
g70
sg14
S'Palatino Linotype'
p1084
sg16
I400
sg17
g18
sg19
g18
sg20
S'c:\\windows\\fonts\\palai.ttf'
p1085
sg22
g23
sbag7
(g8
g9
NtRp1086
(dp1087
g12
g70
sg14
S'Franklin Gothic Heavy'
p1088
sg16
I800
sg17
g18
sg19
g18
sg20
S'c:\\windows\\fonts\\frahvit.ttf'
p1089
sg22
g23
sbag7
(g8
g9
NtRp1090
(dp1091
g12
g18
sg14
S'Malgun Gothic'
p1092
sg16
I400
sg17
g18
sg19
g18
sg20
S'C:\\Windows\\Fonts\\malgun.ttf'
p1093
sg22
g23
sbag7
(g8
g9
NtRp1094
(dp1095
g12
g18
sg14
S'Berlin Sans FB'
p1096
sg16
I400
sg17
g18
sg19
g18
sg20
S'C:\\Windows\\Fonts\\BRLNSR.TTF'
p1097
sg22
g23
sbag7
(g8
g9
NtRp1098
(dp1099
g12
g70
sg14
S'Ubuntu Mono'
p1100
sg16
I700
sg17
g18
sg19
g18
sg20
S'c:\\windows\\fonts\\ubuntumono-bi.ttf'
p1101
sg22
g23
sbag7
(g8
g9
NtRp1102
(dp1103
g12
g70
sg14
S'Ubuntu Mono'
p1104
sg16
I700
sg17
g18
sg19
g18
sg20
S'C:\\Windows\\Fonts\\UbuntuMono-BI.ttf'
p1105
sg22
g23
sbag7
(g8
g9
NtRp1106
(dp1107
g12
g18
sg14
S'JasmineUPC'
p1108
sg16
I700
sg17
g18
sg19
g18
sg20
S'c:\\windows\\fonts\\upcjb.ttf'
p1109
sg22
g23
sbag7
(g8
g9
NtRp1110
(dp1111
g12
g18
sg14
S'David'
p1112
sg16
I700
sg17
g18
sg19
g18
sg20
S'c:\\windows\\fonts\\davidbd.ttf'
p1113
sg22
g23
sbag7
(g8
g9
NtRp1114
(dp1115
g12
g70
sg14
S'Constantia'
p1116
sg16
I400
sg17
g18
sg19
g18
sg20
S'C:\\Windows\\Fonts\\constani.ttf'
p1117
sg22
g23
sbag7
(g8
g9
NtRp1118
(dp1119
g12
g70
sg14
S'Perpetua'
p1120
sg16
I400
sg17
g18
sg19
g18
sg20
S'C:\\Windows\\Fonts\\PERI____.TTF'
p1121
sg22
g23
sbag7
(g8
g9
NtRp1122
(dp1123
g12
g18
sg14
S'Bodoni MT'
p1124
sg16
I700
sg17
g18
sg19
g18
sg20
S'c:\\windows\\fonts\\bod_b.ttf'
p1125
sg22
g23
sbag7
(g8
g9
NtRp1126
(dp1127
g12
g18
sg14
S'Century Schoolbook'
p1128
sg16
I700
sg17
g18
sg19
g18
sg20
S'c:\\windows\\fonts\\schlbkb.ttf'
p1129
sg22
g23
sbag7
(g8
g9
NtRp1130
(dp1131
g12
g18
sg14
S'Chiller'
p1132
sg16
I400
sg17
g18
sg19
g18
sg20
S'c:\\windows\\fonts\\chiller.ttf'
p1133
sg22
g23
sbag7
(g8
g9
NtRp1134
(dp1135
g12
g18
sg14
S'Book Antiqua'
p1136
sg16
I700
sg17
g18
sg19
g18
sg20
S'C:\\Windows\\Fonts\\ANTQUAB.TTF'
p1137
sg22
g23
sbag7
(g8
g9
NtRp1138
(dp1139
g12
g18
sg14
S'Constantia'
p1140
sg16
I400
sg17
g18
sg19
g18
sg20
S'c:\\windows\\fonts\\constan.ttf'
p1141
sg22
g23
sbag7
(g8
g9
NtRp1142
(dp1143
g12
g70
sg14
S'Arial'
p1144
sg16
I400
sg17
g248
sg19
g18
sg20
S'C:\\Windows\\Fonts\\ARIALNI.TTF'
p1145
sg22
g23
sbag7
(g8
g9
NtRp1146
(dp1147
g12
g18
sg14
S'Simplified Arabic Fixed'
p1148
sg16
I400
sg17
g18
sg19
g18
sg20
S'c:\\windows\\fonts\\simpfxo.ttf'
p1149
sg22
g23
sbag7
(g8
g9
NtRp1150
(dp1151
g12
g18
sg14
S'Mangal'
p1152
sg16
I400
sg17
g18
sg19
g18
sg20
S'c:\\windows\\fonts\\mangal.ttf'
p1153
sg22
g23
sbag7
(g8
g9
NtRp1154
(dp1155
g12
g18
sg14
S'Trebuchet MS'
p1156
sg16
I400
sg17
g18
sg19
g18
sg20
S'c:\\windows\\fonts\\trebuc.ttf'
p1157
sg22
g23
sbag7
(g8
g9
NtRp1158
(dp1159
g12
g18
sg14
S'SimHei'
p1160
sg16
I400
sg17
g18
sg19
g18
sg20
S'c:\\windows\\fonts\\simhei.ttf'
p1161
sg22
g23
sbag7
(g8
g9
NtRp1162
(dp1163
g12
g18
sg14
S'Matura MT Script Capitals'
p1164
sg16
I400
sg17
g18
sg19
g18
sg20
S'C:\\Windows\\Fonts\\MATURASC.TTF'
p1165
sg22
g23
sbag7
(g8
g9
NtRp1166
(dp1167
g12
g18
sg14
S'Gill Sans MT'
p1168
sg16
I400
sg17
g18
sg19
g18
sg20
S'c:\\windows\\fonts\\gil_____.ttf'
p1169
sg22
g23
sbag7
(g8
g9
NtRp1170
(dp1171
g12
g18
sg14
S'Lao UI'
p1172
sg16
I400
sg17
g18
sg19
g18
sg20
S'c:\\windows\\fonts\\laoui.ttf'
p1173
sg22
g23
sbag7
(g8
g9
NtRp1174
(dp1175
g12
g18
sg14
S'Gill Sans MT Ext Condensed Bold'
p1176
sg16
I700
sg17
g248
sg19
g18
sg20
S'C:\\Windows\\Fonts\\GLSNECB.TTF'
p1177
sg22
g23
sbag7
(g8
g9
NtRp1178
(dp1179
g12
g18
sg14
S'Lucida Console'
p1180
sg16
I400
sg17
g18
sg19
g18
sg20
S'c:\\windows\\fonts\\lucon.ttf'
p1181
sg22
g23
sbag7
(g8
g9
NtRp1182
(dp1183
g12
g70
sg14
S'Brush Script MT'
p1184
sg16
I400
sg17
g18
sg19
g18
sg20
S'C:\\Windows\\Fonts\\BRUSHSCI.TTF'
p1185
sg22
g23
sbag7
(g8
g9
NtRp1186
(dp1187
g12
g70
sg14
S'BrowalliaUPC'
p1188
sg16
I400
sg17
g18
sg19
g18
sg20
S'C:\\Windows\\Fonts\\browaui.ttf'
p1189
sg22
g23
sbag7
(g8
g9
NtRp1190
(dp1191
g12
g18
sg14
S'DaunPenh'
p1192
sg16
I400
sg17
g18
sg19
g18
sg20
S'c:\\windows\\fonts\\daunpenh.ttf'
p1193
sg22
g23
sbag7
(g8
g9
NtRp1194
(dp1195
g12
g18
sg14
S'Californian FB'
p1196
sg16
I400
sg17
g18
sg19
g18
sg20
S'c:\\windows\\fonts\\califr.ttf'
p1197
sg22
g23
sbag7
(g8
g9
NtRp1198
(dp1199
g12
g18
sg14
S'Calisto MT'
p1200
sg16
I400
sg17
g18
sg19
g18
sg20
S'C:\\Windows\\Fonts\\CALIST.TTF'
p1201
sg22
g23
sbag7
(g8
g9
NtRp1202
(dp1203
g12
g18
sg14
S'Traditional Arabic'
p1204
sg16
I700
sg17
g18
sg19
g18
sg20
S'c:\\windows\\fonts\\tradbdo.ttf'
p1205
sg22
g23
sbag7
(g8
g9
NtRp1206
(dp1207
g12
g18
sg14
S'Arial'
p1208
sg16
I900
sg17
g18
sg19
g18
sg20
S'C:\\Windows\\Fonts\\ariblk.ttf'
p1209
sg22
g23
sbag7
(g8
g9
NtRp1210
(dp1211
g12
g18
sg14
S'Century Schoolbook'
p1212
sg16
I400
sg17
g18
sg19
g18
sg20
S'c:\\windows\\fonts\\censcbk.ttf'
p1213
sg22
g23
sbag7
(g8
g9
NtRp1214
(dp1215
g12
g18
sg14
S'Corbel'
p1216
sg16
I400
sg17
g18
sg19
g18
sg20
S'C:\\Windows\\Fonts\\corbel.ttf'
p1217
sg22
g23
sbag7
(g8
g9
NtRp1218
(dp1219
g12
g18
sg14
S'Gloucester MT Extra Condensed'
p1220
sg16
I400
sg17
g248
sg19
g18
sg20
S'C:\\Windows\\Fonts\\GLECB.TTF'
p1221
sg22
g23
sbag7
(g8
g9
NtRp1222
(dp1223
g12
g18
sg14
S'Gautami'
p1224
sg16
I400
sg17
g18
sg19
g18
sg20
S'C:\\Windows\\Fonts\\gautami.ttf'
p1225
sg22
g23
sbag7
(g8
g9
NtRp1226
(dp1227
g12
g18
sg14
S'Niagara Solid'
p1228
sg16
I400
sg17
g18
sg19
g18
sg20
S'C:\\Windows\\Fonts\\NIAGSOL.TTF'
p1229
sg22
g23
sbag7
(g8
g9
NtRp1230
(dp1231
g12
g18
sg14
S'Microsoft Yi Baiti'
p1232
sg16
I400
sg17
g18
sg19
g18
sg20
S'C:\\Windows\\Fonts\\msyi.ttf'
p1233
sg22
g23
sbag7
(g8
g9
NtRp1234
(dp1235
g12
g18
sg14
S'Calibri'
p1236
sg16
I700
sg17
g18
sg19
g18
sg20
S'C:\\Windows\\Fonts\\calibrib.ttf'
p1237
sg22
g23
sbag7
(g8
g9
NtRp1238
(dp1239
g12
g18
sg14
S'Levenim MT'
p1240
sg16
I400
sg17
g18
sg19
g18
sg20
S'C:\\Windows\\Fonts\\lvnm.ttf'
p1241
sg22
g23
sbag7
(g8
g9
NtRp1242
(dp1243
g12
g18
sg14
S'Bookman Old Style'
p1244
sg16
I700
sg17
g18
sg19
g18
sg20
S'C:\\Windows\\Fonts\\BOOKOSB.TTF'
p1245
sg22
g23
sbag7
(g8
g9
NtRp1246
(dp1247
g12
g18
sg14
S'DilleniaUPC'
p1248
sg16
I700
sg17
g18
sg19
g18
sg20
S'c:\\windows\\fonts\\upcdb.ttf'
p1249
sg22
g23
sbag7
(g8
g9
NtRp1250
(dp1251
g12
g70
sg14
S'Tw Cen MT'
p1252
sg16
I700
sg17
g18
sg19
g18
sg20
S'c:\\windows\\fonts\\tcbi____.ttf'
p1253
sg22
g23
sbag7
(g8
g9
NtRp1254
(dp1255
g12
g18
sg14
S'LilyUPC'
p1256
sg16
I700
sg17
g18
sg19
g18
sg20
S'C:\\Windows\\Fonts\\upclb.ttf'
p1257
sg22
g23
sbag7
(g8
g9
NtRp1258
(dp1259
g12
g18
sg14
S'Verdana'
p1260
sg16
I700
sg17
g18
sg19
g18
sg20
S'c:\\windows\\fonts\\verdanab.ttf'
p1261
sg22
g23
sbag7
(g8
g9
NtRp1262
(dp1263
g12
g18
sg14
S'Microsoft PhagsPa'
p1264
sg16
I700
sg17
g18
sg19
g18
sg20
S'C:\\Windows\\Fonts\\phagspab.ttf'
p1265
sg22
g23
sbag7
(g8
g9
NtRp1266
(dp1267
g12
g70
sg14
S'Courier New'
p1268
sg16
I700
sg17
g18
sg19
g18
sg20
S'c:\\windows\\fonts\\courbi.ttf'
p1269
sg22
g23
sbag7
(g8
g9
NtRp1270
(dp1271
g12
g18
sg14
S'Ubuntu'
p1272
sg16
I200
sg17
g18
sg19
g18
sg20
S'C:\\Windows\\Fonts\\Ubuntu-L.ttf'
p1273
sg22
g23
sbag7
(g8
g9
NtRp1274
(dp1275
g12
g18
sg14
S'Microsoft PhagsPa'
p1276
sg16
I400
sg17
g18
sg19
g18
sg20
S'c:\\windows\\fonts\\phagspa.ttf'
p1277
sg22
g23
sbag7
(g8
g9
NtRp1278
(dp1279
g12
g18
sg14
S'Wingdings 3'
p1280
sg16
I400
sg17
g18
sg19
g18
sg20
S'c:\\windows\\fonts\\wingdng3.ttf'
p1281
sg22
g23
sbag7
(g8
g9
NtRp1282
(dp1283
g12
g18
sg14
S'IrisUPC'
p1284
sg16
I700
sg17
g18
sg19
g18
sg20
S'C:\\Windows\\Fonts\\upcib.ttf'
p1285
sg22
g23
sbag7
(g8
g9
NtRp1286
(dp1287
g12
g18
sg14
S'Calisto MT'
p1288
sg16
I700
sg17
g18
sg19
g18
sg20
S'c:\\windows\\fonts\\calistb.ttf'
p1289
sg22
g23
sbag7
(g8
g9
NtRp1290
(dp1291
g12
g18
sg14
S'Juice ITC'
p1292
sg16
I400
sg17
g18
sg19
g18
sg20
S'C:\\Windows\\Fonts\\JUICE___.TTF'
p1293
sg22
g23
sbag7
(g8
g9
NtRp1294
(dp1295
g12
g18
sg14
S'Shruti'
p1296
sg16
I400
sg17
g18
sg19
g18
sg20
S'C:\\Windows\\Fonts\\shruti.ttf'
p1297
sg22
g23
sbag7
(g8
g9
NtRp1298
(dp1299
g12
g18
sg14
S'Hybrid'
p1300
sg16
I700
sg17
g18
sg19
g18
sg20
S'c:\\windows\\fonts\\hybrid.ttf'
p1301
sg22
g23
sbag7
(g8
g9
NtRp1302
(dp1303
g12
g18
sg14
S'Angsana New'
p1304
sg16
I400
sg17
g18
sg19
g18
sg20
S'C:\\Windows\\Fonts\\angsa.ttf'
p1305
sg22
g23
sbag7
(g8
g9
NtRp1306
(dp1307
g12
g18
sg14
S'Bradley Hand ITC'
p1308
sg16
I400
sg17
g18
sg19
g18
sg20
S'C:\\Windows\\Fonts\\BRADHITC.TTF'
p1309
sg22
g23
sbag7
(g8
g9
NtRp1310
(dp1311
g12
g18
sg14
S'Viner Hand ITC'
p1312
sg16
I400
sg17
g18
sg19
g18
sg20
S'c:\\windows\\fonts\\vineritc.ttf'
p1313
sg22
g23
sbag7
(g8
g9
NtRp1314
(dp1315
g12
g18
sg14
S'Jokerman'
p1316
sg16
I400
sg17
g18
sg19
g18
sg20
S'c:\\windows\\fonts\\jokerman.ttf'
p1317
sg22
g23
sbag7
(g8
g9
NtRp1318
(dp1319
g12
g70
sg14
S'Lucida Handwriting'
p1320
sg16
I400
sg17
g18
sg19
g18
sg20
S'C:\\Windows\\Fonts\\LHANDW.TTF'
p1321
sg22
g23
sbag7
(g8
g9
NtRp1322
(dp1323
g12
g18
sg14
S'Segoe UI'
p1324
sg16
I700
sg17
g18
sg19
g18
sg20
S'C:\\Windows\\Fonts\\segoeuib.ttf'
p1325
sg22
g23
sbag7
(g8
g9
NtRp1326
(dp1327
g12
g18
sg14
S'Ebrima'
p1328
sg16
I400
sg17
g18
sg19
g18
sg20
S'C:\\Windows\\Fonts\\ebrima.ttf'
p1329
sg22
g23
sbag7
(g8
g9
NtRp1330
(dp1331
g12
g70
sg14
S'Candara'
p1332
sg16
I700
sg17
g18
sg19
g18
sg20
S'C:\\Windows\\Fonts\\Candaraz.ttf'
p1333
sg22
g23
sbag7
(g8
g9
NtRp1334
(dp1335
g12
g18
sg14
S'Blackadder ITC'
p1336
sg16
I900
sg17
g18
sg19
g18
sg20
S'c:\\windows\\fonts\\itcblkad.ttf'
p1337
sg22
g23
sbag7
(g8
g9
NtRp1338
(dp1339
g12
g70
sg14
S'Bodoni MT'
p1340
sg16
I700
sg17
g248
sg19
g18
sg20
S'C:\\Windows\\Fonts\\BOD_CBI.TTF'
p1341
sg22
g23
sbag7
(g8
g9
NtRp1342
(dp1343
g12
g18
sg14
S'Baskerville Old Face'
p1344
sg16
I400
sg17
g18
sg19
g18
sg20
S'c:\\windows\\fonts\\baskvill.ttf'
p1345
sg22
g23
sbag7
(g8
g9
NtRp1346
(dp1347
g12
g18
sg14
S'Lucida Fax'
p1348
sg16
I400
sg17
g18
sg19
g18
sg20
S'C:\\Windows\\Fonts\\LFAX.TTF'
p1349
sg22
g23
sbag7
(g8
g9
NtRp1350
(dp1351
g12
g18
sg14
S'Aparajita'
p1352
sg16
I700
sg17
g18
sg19
g18
sg20
S'C:\\Windows\\Fonts\\aparajb.ttf'
p1353
sg22
g23
sbag7
(g8
g9
NtRp1354
(dp1355
g12
g70
sg14
S'Rockwell'
p1356
sg16
I400
sg17
g18
sg19
g18
sg20
S'c:\\windows\\fonts\\rocki.ttf'
p1357
sg22
g23
sbag7
(g8
g9
NtRp1358
(dp1359
g12
g70
sg14
S'Book Antiqua'
p1360
sg16
I400
sg17
g18
sg19
g18
sg20
S'C:\\Windows\\Fonts\\ANTQUAI.TTF'
p1361
sg22
g23
sbag7
(g8
g9
NtRp1362
(dp1363
g12
g18
sg14
S'Book Antiqua'
p1364
sg16
I400
sg17
g18
sg19
g18
sg20
S'c:\\windows\\fonts\\bkant.ttf'
p1365
sg22
g23
sbag7
(g8
g9
NtRp1366
(dp1367
g12
g70
sg14
S'Bodoni MT'
p1368
sg16
I400
sg17
g18
sg19
g18
sg20
S'C:\\Windows\\Fonts\\BOD_I.TTF'
p1369
sg22
g23
sbag7
(g8
g9
NtRp1370
(dp1371
g12
g18
sg14
S'AngsanaUPC'
p1372
sg16
I400
sg17
g18
sg19
g18
sg20
S'C:\\Windows\\Fonts\\angsau.ttf'
p1373
sg22
g23
sbag7
(g8
g9
NtRp1374
(dp1375
g12
g18
sg14
S'Garamond'
p1376
sg16
I700
sg17
g18
sg19
g18
sg20
S'c:\\windows\\fonts\\garabd.ttf'
p1377
sg22
g23
sbag7
(g8
g9
NtRp1378
(dp1379
g12
g18
sg14
S'Microsoft Uighur'
p1380
sg16
I400
sg17
g18
sg19
g18
sg20
S'C:\\Windows\\Fonts\\msuighur.ttf'
p1381
sg22
g23
sbag7
(g8
g9
NtRp1382
(dp1383
g12
g18
sg14
S'Courier New'
p1384
sg16
I700
sg17
g18
sg19
g18
sg20
S'C:\\Windows\\Fonts\\courbd.ttf'
p1385
sg22
g23
sbag7
(g8
g9
NtRp1386
(dp1387
g12
g70
sg14
S'Exoplanet Condensed Italic'
p1388
sg16
I400
sg17
g248
sg19
g18
sg20
S'C:\\Windows\\Fonts\\exoplanetcondital.ttf'
p1389
sg22
g23
sbag7
(g8
g9
NtRp1390
(dp1391
g12
g18
sg14
S'Snap ITC'
p1392
sg16
I400
sg17
g18
sg19
g18
sg20
S'C:\\Windows\\Fonts\\SNAP____.TTF'
p1393
sg22
g23
sbag7
(g8
g9
NtRp1394
(dp1395
g12
g18
sg14
S'Gisha'
p1396
sg16
I400
sg17
g18
sg19
g18
sg20
S'c:\\windows\\fonts\\gisha.ttf'
p1397
sg22
g23
sbag7
(g8
g9
NtRp1398
(dp1399
g12
g18
sg14
S'Calisto MT'
p1400
sg16
I400
sg17
g18
sg19
g18
sg20
S'c:\\windows\\fonts\\calist.ttf'
p1401
sg22
g23
sbag7
(g8
g9
NtRp1402
(dp1403
g12
g18
sg14
S'Curlz MT'
p1404
sg16
I400
sg17
g18
sg19
g18
sg20
S'c:\\windows\\fonts\\curlz___.ttf'
p1405
sg22
g23
sbag7
(g8
g9
NtRp1406
(dp1407
g12
g70
sg14
S'Arial'
p1408
sg16
I700
sg17
g18
sg19
g18
sg20
S'c:\\windows\\fonts\\arialbi.ttf'
p1409
sg22
g23
sbag7
(g8
g9
NtRp1410
(dp1411
g12
g70
sg14
S'Trebuchet MS'
p1412
sg16
I400
sg17
g18
sg19
g18
sg20
S'c:\\windows\\fonts\\trebucit.ttf'
p1413
sg22
g23
sbag7
(g8
g9
NtRp1414
(dp1415
g12
g70
sg14
S'Bookman Old Style'
p1416
sg16
I400
sg17
g18
sg19
g18
sg20
S'C:\\Windows\\Fonts\\BOOKOSI.TTF'
p1417
sg22
g23
sbag7
(g8
g9
NtRp1418
(dp1419
g12
g18
sg14
S'Britannic Bold'
p1420
sg16
I700
sg17
g18
sg19
g18
sg20
S'c:\\windows\\fonts\\britanic.ttf'
p1421
sg22
g23
sbag7
(g8
g9
NtRp1422
(dp1423
g12
g18
sg14
S'Rockwell'
p1424
sg16
I700
sg17
g18
sg19
g18
sg20
S'C:\\Windows\\Fonts\\ROCKB.TTF'
p1425
sg22
g23
sbag7
(g8
g9
NtRp1426
(dp1427
g12
g18
sg14
S'Perpetua Titling MT'
p1428
sg16
I200
sg17
g18
sg19
g18
sg20
S'c:\\windows\\fonts\\pertili.ttf'
p1429
sg22
g23
sbag7
(g8
g9
NtRp1430
(dp1431
g12
g18
sg14
S'Californian FB'
p1432
sg16
I700
sg17
g18
sg19
g18
sg20
S'C:\\Windows\\Fonts\\CALIFB.TTF'
p1433
sg22
g23
sbag7
(g8
g9
NtRp1434
(dp1435
g12
g70
sg14
S'Ubuntu'
p1436
sg16
I400
sg17
g18
sg19
g18
sg20
S'c:\\windows\\fonts\\ubuntu-ri.ttf'
p1437
sg22
g23
sbag7
(g8
g9
NtRp1438
(dp1439
g12
g18
sg14
S'SimSun-ExtB'
p1440
sg16
I400
sg17
g18
sg19
g18
sg20
S'c:\\windows\\fonts\\simsunb.ttf'
p1441
sg22
g23
sbag7
(g8
g9
NtRp1442
(dp1443
g12
g18
sg14
S'Tw Cen MT Condensed Extra Bold'
p1444
sg16
I700
sg17
g248
sg19
g18
sg20
S'C:\\Windows\\Fonts\\TCCEB.TTF'
p1445
sg22
g23
sbag7
(g8
g9
NtRp1446
(dp1447
g12
g70
sg14
S'Bodoni MT'
p1448
sg16
I700
sg17
g18
sg19
g18
sg20
S'C:\\Windows\\Fonts\\BOD_BI.TTF'
p1449
sg22
g23
sbag7
(g8
g9
NtRp1450
(dp1451
g12
g18
sg14
S'MS Reference Sans Serif'
p1452
sg16
I400
sg17
g18
sg19
g18
sg20
S'C:\\Windows\\Fonts\\REFSAN.TTF'
p1453
sg22
g23
sbag7
(g8
g9
NtRp1454
(dp1455
g12
g18
sg14
S'Traditional Arabic'
p1456
sg16
I400
sg17
g18
sg19
g18
sg20
S'C:\\Windows\\Fonts\\trado.ttf'
p1457
sg22
g23
sbag7
(g8
g9
NtRp1458
(dp1459
g12
g18
sg14
S'Bauhaus 93'
p1460
sg16
I400
sg17
g18
sg19
g18
sg20
S'c:\\windows\\fonts\\bauhs93.ttf'
p1461
sg22
g23
sbag7
(g8
g9
NtRp1462
(dp1463
g12
g70
sg14
S'Lucida Calligraphy'
p1464
sg16
I400
sg17
g18
sg19
g18
sg20
S'c:\\windows\\fonts\\lcallig.ttf'
p1465
sg22
g23
sbag7
(g8
g9
NtRp1466
(dp1467
g12
g13
sg14
S'Lucida Sans Typewriter'
p1468
sg16
I700
sg17
g18
sg19
g18
sg20
S'C:\\Windows\\Fonts\\LTYPEBO.TTF'
p1469
sg22
g23
sbag7
(g8
g9
NtRp1470
(dp1471
g12
g70
sg14
S'Gill Sans MT'
p1472
sg16
I700
sg17
g18
sg19
g18
sg20
S'c:\\windows\\fonts\\gilbi___.ttf'
p1473
sg22
g23
sbag7
(g8
g9
NtRp1474
(dp1475
g12
g18
sg14
S'Miriam'
p1476
sg16
I400
sg17
g18
sg19
g18
sg20
S'c:\\windows\\fonts\\mriam.ttf'
p1477
sg22
g23
sbag7
(g8
g9
NtRp1478
(dp1479
g12
g70
sg14
S'Times New Roman'
p1480
sg16
I700
sg17
g18
sg19
g18
sg20
S'c:\\windows\\fonts\\timesbi.ttf'
p1481
sg22
g23
sbag7
(g8
g9
NtRp1482
(dp1483
g12
g18
sg14
S'Comic Sans MS'
p1484
sg16
I700
sg17
g18
sg19
g18
sg20
S'c:\\windows\\fonts\\comicbd.ttf'
p1485
sg22
g23
sbag7
(g8
g9
NtRp1486
(dp1487
g12
g18
sg14
S'Candara'
p1488
sg16
I700
sg17
g18
sg19
g18
sg20
S'c:\\windows\\fonts\\candarab.ttf'
p1489
sg22
g23
sbag7
(g8
g9
NtRp1490
(dp1491
g12
g18
sg14
S'Modern No. 20'
p1492
sg16
I400
sg17
g18
sg19
g18
sg20
S'C:\\Windows\\Fonts\\MOD20.TTF'
p1493
sg22
g23
sbag7
(g8
g9
NtRp1494
(dp1495
g12
g18
sg14
S'Lucida Sans Typewriter'
p1496
sg16
I400
sg17
g18
sg19
g18
sg20
S'C:\\Windows\\Fonts\\LTYPE.TTF'
p1497
sg22
g23
sbag7
(g8
g9
NtRp1498
(dp1499
g12
g13
sg14
S'Lucida Sans Typewriter'
p1500
sg16
I400
sg17
g18
sg19
g18
sg20
S'c:\\windows\\fonts\\ltypeo.ttf'
p1501
sg22
g23
sbag7
(g8
g9
NtRp1502
(dp1503
g12
g70
sg14
S'Georgia'
p1504
sg16
I700
sg17
g18
sg19
g18
sg20
S'C:\\Windows\\Fonts\\georgiaz.ttf'
p1505
sg22
g23
sbag7
(g8
g9
NtRp1506
(dp1507
g12
g18
sg14
S'Microsoft JhengHei'
p1508
sg16
I400
sg17
g18
sg19
g18
sg20
S'C:\\Windows\\Fonts\\msjh.ttf'
p1509
sg22
g23
sbag7
(g8
g9
NtRp1510
(dp1511
g12
g18
sg14
S'Eras Light ITC'
p1512
sg16
I200
sg17
g18
sg19
g18
sg20
S'C:\\Windows\\Fonts\\ERASLGHT.TTF'
p1513
sg22
g23
sbag7
(g8
g9
NtRp1514
(dp1515
g12
g18
sg14
S'Tw Cen MT'
p1516
sg16
I400
sg17
g18
sg19
g18
sg20
S'C:\\Windows\\Fonts\\TCM_____.TTF'
p1517
sg22
g23
sbag7
(g8
g9
NtRp1518
(dp1519
g12
g70
sg14
S'Ubuntu'
p1520
sg16
I700
sg17
g18
sg19
g18
sg20
S'c:\\windows\\fonts\\ubuntu-bi.ttf'
p1521
sg22
g23
sbag7
(g8
g9
NtRp1522
(dp1523
g12
g18
sg14
S'Ubuntu Mono'
p1524
sg16
I400
sg17
g18
sg19
g18
sg20
S'c:\\windows\\fonts\\ubuntumono-r.ttf'
p1525
sg22
g23
sbag7
(g8
g9
NtRp1526
(dp1527
g12
g70
sg14
S'Calibri'
p1528
sg16
I200
sg17
g18
sg19
g18
sg20
S'c:\\windows\\fonts\\calibrili.ttf'
p1529
sg22
g23
sbag7
(g8
g9
NtRp1530
(dp1531
g12
g18
sg14
S'David'
p1532
sg16
I400
sg17
g18
sg19
g18
sg20
S'C:\\Windows\\Fonts\\david.ttf'
p1533
sg22
g23
sbag7
(g8
g9
NtRp1534
(dp1535
g12
g18
sg14
S'Gigi'
p1536
sg16
I400
sg17
g18
sg19
g18
sg20
S'C:\\Windows\\Fonts\\GIGI.TTF'
p1537
sg22
g23
sbag7
(g8
g9
NtRp1538
(dp1539
g12
g18
sg14
S'Book Antiqua'
p1540
sg16
I700
sg17
g18
sg19
g18
sg20
S'c:\\windows\\fonts\\antquab.ttf'
p1541
sg22
g23
sbag7
(g8
g9
NtRp1542
(dp1543
g12
g18
sg14
S'Rockwell Condensed'
p1544
sg16
I700
sg17
g248
sg19
g18
sg20
S'C:\\Windows\\Fonts\\ROCCB___.TTF'
p1545
sg22
g23
sbag7
(g8
g9
NtRp1546
(dp1547
g12
g18
sg14
S'Californian FB'
p1548
sg16
I400
sg17
g18
sg19
g18
sg20
S'C:\\Windows\\Fonts\\CALIFR.TTF'
p1549
sg22
g23
sbag7
(g8
g9
NtRp1550
(dp1551
g12
g70
sg14
S'Candara'
p1552
sg16
I400
sg17
g18
sg19
g18
sg20
S'c:\\windows\\fonts\\candarai.ttf'
p1553
sg22
g23
sbag7
(g8
g9
NtRp1554
(dp1555
g12
g18
sg14
S'Franklin Gothic Book'
p1556
sg16
I400
sg17
g18
sg19
g18
sg20
S'c:\\windows\\fonts\\frabk.ttf'
p1557
sg22
g23
sbag7
(g8
g9
NtRp1558
(dp1559
g12
g18
sg14
S'Aparajita'
p1560
sg16
I400
sg17
g18
sg19
g18
sg20
S'c:\\windows\\fonts\\aparaj.ttf'
p1561
sg22
g23
sbag7
(g8
g9
NtRp1562
(dp1563
g12
g18
sg14
S'Goudy Old Style'
p1564
sg16
I700
sg17
g18
sg19
g18
sg20
S'c:\\windows\\fonts\\goudosb.ttf'
p1565
sg22
g23
sbag7
(g8
g9
NtRp1566
(dp1567
g12
g18
sg14
S'CordiaUPC'
p1568
sg16
I700
sg17
g18
sg19
g18
sg20
S'C:\\Windows\\Fonts\\cordiaub.ttf'
p1569
sg22
g23
sbag7
(g8
g9
NtRp1570
(dp1571
g12
g18
sg14
S'Eras Light ITC'
p1572
sg16
I200
sg17
g18
sg19
g18
sg20
S'c:\\windows\\fonts\\eraslght.ttf'
p1573
sg22
g23
sbag7
(g8
g9
NtRp1574
(dp1575
g12
g70
sg14
S'Tw Cen MT'
p1576
sg16
I700
sg17
g18
sg19
g18
sg20
S'C:\\Windows\\Fonts\\TCBI____.TTF'
p1577
sg22
g23
sbag7
(g8
g9
NtRp1578
(dp1579
g12
g18
sg14
S'Cooper Black'
p1580
sg16
I900
sg17
g18
sg19
g18
sg20
S'C:\\Windows\\Fonts\\COOPBL.TTF'
p1581
sg22
g23
sbag7
(g8
g9
NtRp1582
(dp1583
g12
g18
sg14
S'Perpetua Titling MT'
p1584
sg16
I700
sg17
g18
sg19
g18
sg20
S'c:\\windows\\fonts\\pertibd.ttf'
p1585
sg22
g23
sbag7
(g8
g9
NtRp1586
(dp1587
g12
g70
sg14
S'Utsaah'
p1588
sg16
I700
sg17
g18
sg19
g18
sg20
S'C:\\Windows\\Fonts\\utsaahbi.ttf'
p1589
sg22
g23
sbag7
(g8
g9
NtRp1590
(dp1591
g12
g70
sg14
S'Elephant'
p1592
sg16
I400
sg17
g18
sg19
g18
sg20
S'c:\\windows\\fonts\\elephnti.ttf'
p1593
sg22
g23
sbag7
(g8
g9
NtRp1594
(dp1595
g12
g70
sg14
S'Times New Roman'
p1596
sg16
I500
sg17
g18
sg19
g18
sg20
S'C:\\Windows\\Fonts\\timesi.ttf'
p1597
sg22
g23
sbag7
(g8
g9
NtRp1598
(dp1599
g12
g70
sg14
S'Century Gothic'
p1600
sg16
I700
sg17
g18
sg19
g18
sg20
S'c:\\windows\\fonts\\gothicbi.ttf'
p1601
sg22
g23
sbag7
(g8
g9
NtRp1602
(dp1603
g12
g18
sg14
S'Gabriola'
p1604
sg16
I400
sg17
g18
sg19
g18
sg20
S'C:\\Windows\\Fonts\\Gabriola.ttf'
p1605
sg22
g23
sbag7
(g8
g9
NtRp1606
(dp1607
g12
g18
sg14
S'Harrington'
p1608
sg16
I400
sg17
g18
sg19
g18
sg20
S'c:\\windows\\fonts\\harngton.ttf'
p1609
sg22
g23
sbag7
(g8
g9
NtRp1610
(dp1611
g12
g18
sg14
S'Gill Sans Ultra Bold'
p1612
sg16
I700
sg17
g18
sg19
g18
sg20
S'C:\\Windows\\Fonts\\GILSANUB.TTF'
p1613
sg22
g23
sbag7
(g8
g9
NtRp1614
(dp1615
g12
g18
sg14
S'Tw Cen MT'
p1616
sg16
I700
sg17
g18
sg19
g18
sg20
S'C:\\Windows\\Fonts\\TCB_____.TTF'
p1617
sg22
g23
sbag7
(g8
g9
NtRp1618
(dp1619
g12
g18
sg14
S'Iskoola Pota'
p1620
sg16
I400
sg17
g18
sg19
g18
sg20
S'c:\\windows\\fonts\\iskpota.ttf'
p1621
sg22
g23
sbag7
(g8
g9
NtRp1622
(dp1623
g12
g18
sg14
S'Bodoni MT'
p1624
sg16
I700
sg17
g248
sg19
g18
sg20
S'C:\\Windows\\Fonts\\BOD_CB.TTF'
p1625
sg22
g23
sbag7
(g8
g9
NtRp1626
(dp1627
g12
g18
sg14
S'Engravers MT'
p1628
sg16
I400
sg17
g18
sg19
g18
sg20
S'C:\\Windows\\Fonts\\ENGR.TTF'
p1629
sg22
g23
sbag7
(g8
g9
NtRp1630
(dp1631
g12
g70
sg14
S'Candara'
p1632
sg16
I400
sg17
g18
sg19
g18
sg20
S'C:\\Windows\\Fonts\\Candarai.ttf'
p1633
sg22
g23
sbag7
(g8
g9
NtRp1634
(dp1635
g12
g70
sg14
S'Garamond'
p1636
sg16
I400
sg17
g18
sg19
g18
sg20
S'c:\\windows\\fonts\\garait.ttf'
p1637
sg22
g23
sbag7
(g8
g9
NtRp1638
(dp1639
g12
g18
sg14
S'Gill Sans MT'
p1640
sg16
I700
sg17
g18
sg19
g18
sg20
S'c:\\windows\\fonts\\gilb____.ttf'
p1641
sg22
g23
sbag7
(g8
g9
NtRp1642
(dp1643
g12
g18
sg14
S'Century'
p1644
sg16
I400
sg17
g18
sg19
g18
sg20
S'c:\\windows\\fonts\\century.ttf'
p1645
sg22
g23
sbag7
(g8
g9
NtRp1646
(dp1647
g12
g70
sg14
S'Aparajita'
p1648
sg16
I400
sg17
g18
sg19
g18
sg20
S'c:\\windows\\fonts\\aparaji.ttf'
p1649
sg22
g23
sbag7
(g8
g9
NtRp1650
(dp1651
g12
g70
sg14
S'Franklin Gothic Book'
p1652
sg16
I400
sg17
g18
sg19
g18
sg20
S'c:\\windows\\fonts\\frabkit.ttf'
p1653
sg22
g23
sbag7
(g8
g9
NtRp1654
(dp1655
g12
g18
sg14
S'Mongolian Baiti'
p1656
sg16
I400
sg17
g18
sg19
g18
sg20
S'C:\\Windows\\Fonts\\monbaiti.ttf'
p1657
sg22
g23
sbag7
(g8
g9
NtRp1658
(dp1659
g12
g18
sg14
S'Arial'
p1660
sg16
I700
sg17
g248
sg19
g18
sg20
S'c:\\windows\\fonts\\arialnb.ttf'
p1661
sg22
g23
sbag7
(g8
g9
NtRp1662
(dp1663
g12
g18
sg14
S'MS Outlook'
p1664
sg16
I400
sg17
g18
sg19
g18
sg20
S'c:\\windows\\fonts\\outlook.ttf'
p1665
sg22
g23
sbag7
(g8
g9
NtRp1666
(dp1667
g12
g70
sg14
S'Lucida Fax'
p1668
sg16
I700
sg17
g18
sg19
g18
sg20
S'c:\\windows\\fonts\\lfaxdi.ttf'
p1669
sg22
g23
sbag7
(g8
g9
NtRp1670
(dp1671
g12
g18
sg14
S'Candara'
p1672
sg16
I400
sg17
g18
sg19
g18
sg20
S'c:\\windows\\fonts\\candara.ttf'
p1673
sg22
g23
sbag7
(g8
g9
NtRp1674
(dp1675
g12
g18
sg14
S'Copperplate Gothic Light'
p1676
sg16
I200
sg17
g18
sg19
g18
sg20
S'C:\\Windows\\Fonts\\COPRGTL.TTF'
p1677
sg22
g23
sbag7
(g8
g9
NtRp1678
(dp1679
g12
g18
sg14
S'Perpetua'
p1680
sg16
I400
sg17
g18
sg19
g18
sg20
S'C:\\Windows\\Fonts\\PER_____.TTF'
p1681
sg22
g23
sbag7
(g8
g9
NtRp1682
(dp1683
g12
g18
sg14
S'Vijaya'
p1684
sg16
I400
sg17
g18
sg19
g18
sg20
S'c:\\windows\\fonts\\vijaya.ttf'
p1685
sg22
g23
sbag7
(g8
g9
NtRp1686
(dp1687
g12
g18
sg14
S'Arial'
p1688
sg16
I400
sg17
g248
sg19
g18
sg20
S'c:\\windows\\fonts\\arialn.ttf'
p1689
sg22
g23
sbag7
(g8
g9
NtRp1690
(dp1691
g12
g18
sg14
S'Colonna MT'
p1692
sg16
I400
sg17
g18
sg19
g18
sg20
S'c:\\windows\\fonts\\colonna.ttf'
p1693
sg22
g23
sbag7
(g8
g9
NtRp1694
(dp1695
g12
g70
sg14
S'Cordia New'
p1696
sg16
I400
sg17
g18
sg19
g18
sg20
S'C:\\Windows\\Fonts\\cordiai.ttf'
p1697
sg22
g23
sbag7
(g8
g9
NtRp1698
(dp1699
g12
g18
sg14
S'Lucida Fax'
p1700
sg16
I400
sg17
g18
sg19
g18
sg20
S'c:\\windows\\fonts\\lfax.ttf'
p1701
sg22
g23
sbag7
(g8
g9
NtRp1702
(dp1703
g12
g18
sg14
S'Tunga'
p1704
sg16
I700
sg17
g18
sg19
g18
sg20
S'C:\\Windows\\Fonts\\tungab.ttf'
p1705
sg22
g23
sbag7
(g8
g9
NtRp1706
(dp1707
g12
g70
sg14
S'Gill Sans MT'
p1708
sg16
I400
sg17
g18
sg19
g18
sg20
S'C:\\Windows\\Fonts\\GILI____.TTF'
p1709
sg22
g23
sbag7
(g8
g9
NtRp1710
(dp1711
g12
g18
sg14
S'Sakkal Majalla'
p1712
sg16
I700
sg17
g18
sg19
g18
sg20
S'C:\\Windows\\Fonts\\majallab.ttf'
p1713
sg22
g23
sbag7
(g8
g9
NtRp1714
(dp1715
g12
g70
sg14
S'Rage Italic'
p1716
sg16
I400
sg17
g18
sg19
g18
sg20
S'C:\\Windows\\Fonts\\RAGE.TTF'
p1717
sg22
g23
sbag7
(g8
g9
NtRp1718
(dp1719
g12
g18
sg14
S'Haettenschweiler'
p1720
sg16
I400
sg17
g18
sg19
g18
sg20
S'c:\\windows\\fonts\\hatten.ttf'
p1721
sg22
g23
sbag7
(g8
g9
NtRp1722
(dp1723
g12
g70
sg14
S'Perpetua'
p1724
sg16
I700
sg17
g18
sg19
g18
sg20
S'C:\\Windows\\Fonts\\PERBI___.TTF'
p1725
sg22
g23
sbag7
(g8
g9
NtRp1726
(dp1727
g12
g18
sg14
S'JasmineUPC'
p1728
sg16
I400
sg17
g18
sg19
g18
sg20
S'c:\\windows\\fonts\\upcjl.ttf'
p1729
sg22
g23
sbag7
(g8
g9
NtRp1730
(dp1731
g12
g18
sg14
S'Shonar Bangla'
p1732
sg16
I400
sg17
g18
sg19
g18
sg20
S'C:\\Windows\\Fonts\\Shonar.ttf'
p1733
sg22
g23
sbag7
(g8
g9
NtRp1734
(dp1735
g12
g18
sg14
S'Berlin Sans FB'
p1736
sg16
I400
sg17
g18
sg19
g18
sg20
S'c:\\windows\\fonts\\brlnsr.ttf'
p1737
sg22
g23
sbag7
(g8
g9
NtRp1738
(dp1739
g12
g18
sg14
S'Wide Latin'
p1740
sg16
I400
sg17
S'expanded'
p1741
sg19
g18
sg20
S'C:\\Windows\\Fonts\\LATINWD.TTF'
p1742
sg22
g23
sbag7
(g8
g9
NtRp1743
(dp1744
g12
g18
sg14
S'Bookshelf Symbol 7'
p1745
sg16
I400
sg17
g18
sg19
g18
sg20
S'C:\\Windows\\Fonts\\BSSYM7.TTF'
p1746
sg22
g23
sbag7
(g8
g9
NtRp1747
(dp1748
g12
g18
sg14
S'Bell MT'
p1749
sg16
I400
sg17
g18
sg19
g18
sg20
S'c:\\windows\\fonts\\bell.ttf'
p1750
sg22
g23
sbag7
(g8
g9
NtRp1751
(dp1752
g12
g18
sg14
S'MT Extra'
p1753
sg16
I400
sg17
g18
sg19
g18
sg20
S'c:\\program files\\common files\\microsoft shared\\equation\\mtextra.ttf'
p1754
sg22
g23
sbag7
(g8
g9
NtRp1755
(dp1756
g12
g70
sg14
S'Corbel'
p1757
sg16
I700
sg17
g18
sg19
g18
sg20
S'C:\\Windows\\Fonts\\corbelz.ttf'
p1758
sg22
g23
sbag7
(g8
g9
NtRp1759
(dp1760
g12
g18
sg14
S'Forte'
p1761
sg16
I400
sg17
g18
sg19
g18
sg20
S'C:\\Windows\\Fonts\\FORTE.TTF'
p1762
sg22
g23
sbag7
(g8
g9
NtRp1763
(dp1764
g12
g18
sg14
S'Bodoni MT'
p1765
sg16
I700
sg17
g18
sg19
g18
sg20
S'C:\\Windows\\Fonts\\BOD_B.TTF'
p1766
sg22
g23
sbag7
(g8
g9
NtRp1767
(dp1768
g12
g18
sg14
S'Segoe Script'
p1769
sg16
I700
sg17
g18
sg19
g18
sg20
S'c:\\windows\\fonts\\segoescb.ttf'
p1770
sg22
g23
sbag7
(g8
g9
NtRp1771
(dp1772
g12
g70
sg14
S'Franklin Gothic Heavy'
p1773
sg16
I800
sg17
g18
sg19
g18
sg20
S'C:\\Windows\\Fonts\\FRAHVIT.TTF'
p1774
sg22
g23
sbag7
(g8
g9
NtRp1775
(dp1776
g12
g18
sg14
S'Comic Sans MS'
p1777
sg16
I400
sg17
g18
sg19
g18
sg20
S'C:\\Windows\\Fonts\\comic.ttf'
p1778
sg22
g23
sbag7
(g8
g9
NtRp1779
(dp1780
g12
g18
sg14
S'Tw Cen MT Condensed'
p1781
sg16
I400
sg17
g248
sg19
g18
sg20
S'C:\\Windows\\Fonts\\TCCM____.TTF'
p1782
sg22
g23
sbag7
(g8
g9
NtRp1783
(dp1784
g12
g18
sg14
S'Juice ITC'
p1785
sg16
I400
sg17
g18
sg19
g18
sg20
S'c:\\windows\\fonts\\juice___.ttf'
p1786
sg22
g23
sbag7
(g8
g9
NtRp1787
(dp1788
g12
g18
sg14
S'French Script MT'
p1789
sg16
I400
sg17
g18
sg19
g18
sg20
S'C:\\Windows\\Fonts\\FRSCRIPT.TTF'
p1790
sg22
g23
sbag7
(g8
g9
NtRp1791
(dp1792
g12
g18
sg14
S'Century Schoolbook'
p1793
sg16
I700
sg17
g18
sg19
g18
sg20
S'C:\\Windows\\Fonts\\SCHLBKB.TTF'
p1794
sg22
g23
sbag7
(g8
g9
NtRp1795
(dp1796
g12
g18
sg14
S'Lucida Sans'
p1797
sg16
I400
sg17
g18
sg19
g18
sg20
S'c:\\windows\\fonts\\lsans.ttf'
p1798
sg22
g23
sbag7
(g8
g9
NtRp1799
(dp1800
g12
g18
sg14
S'Mistral'
p1801
sg16
I400
sg17
g18
sg19
g18
sg20
S'C:\\Windows\\Fonts\\MISTRAL.TTF'
p1802
sg22
g23
sbag7
(g8
g9
NtRp1803
(dp1804
g12
g18
sg14
S'Franklin Gothic Medium Cond'
p1805
sg16
I500
sg17
g248
sg19
g18
sg20
S'c:\\windows\\fonts\\framdcn.ttf'
p1806
sg22
g23
sbag7
(g8
g9
NtRp1807
(dp1808
g12
g18
sg14
S'Garamond'
p1809
sg16
I700
sg17
g18
sg19
g18
sg20
S'C:\\Windows\\Fonts\\GARABD.TTF'
p1810
sg22
g23
sbag7
(g8
g9
NtRp1811
(dp1812
g12
g70
sg14
S'Franklin Gothic Book'
p1813
sg16
I400
sg17
g18
sg19
g18
sg20
S'C:\\Windows\\Fonts\\FRABKIT.TTF'
p1814
sg22
g23
sbag7
(g8
g9
NtRp1815
(dp1816
g12
g18
sg14
S'Castellar'
p1817
sg16
I400
sg17
g18
sg19
g18
sg20
S'C:\\Windows\\Fonts\\CASTELAR.TTF'
p1818
sg22
g23
sbag7
(g8
g9
NtRp1819
(dp1820
g12
g18
sg14
S'Palatino Linotype'
p1821
sg16
I700
sg17
g18
sg19
g18
sg20
S'c:\\windows\\fonts\\palab.ttf'
p1822
sg22
g23
sbag7
(g8
g9
NtRp1823
(dp1824
g12
g70
sg14
S'Brush Script MT'
p1825
sg16
I400
sg17
g18
sg19
g18
sg20
S'c:\\windows\\fonts\\brushsci.ttf'
p1826
sg22
g23
sbag7
(g8
g9
NtRp1827
(dp1828
g12
g70
sg14
S'Lucida Fax'
p1829
sg16
I400
sg17
g18
sg19
g18
sg20
S'C:\\Windows\\Fonts\\LFAXI.TTF'
p1830
sg22
g23
sbag7
(g8
g9
NtRp1831
(dp1832
g12
g18
sg14
S'Freestyle Script'
p1833
sg16
I400
sg17
g18
sg19
g18
sg20
S'c:\\windows\\fonts\\freescpt.ttf'
p1834
sg22
g23
sbag7
(g8
g9
NtRp1835
(dp1836
g12
g70
sg14
S'Bodoni MT'
p1837
sg16
I400
sg17
g248
sg19
g18
sg20
S'c:\\windows\\fonts\\bod_ci.ttf'
p1838
sg22
g23
sbag7
(g8
g9
NtRp1839
(dp1840
g12
g18
sg14
S'Bell MT'
p1841
sg16
I400
sg17
g18
sg19
g18
sg20
S'C:\\Windows\\Fonts\\BELL.TTF'
p1842
sg22
g23
sbag7
(g8
g9
NtRp1843
(dp1844
g12
g18
sg14
S'Gill Sans Ultra Bold'
p1845
sg16
I700
sg17
g18
sg19
g18
sg20
S'c:\\windows\\fonts\\gilsanub.ttf'
p1846
sg22
g23
sbag7
(g8
g9
NtRp1847
(dp1848
g12
g18
sg14
S'Papyrus'
p1849
sg16
I400
sg17
g18
sg19
g18
sg20
S'C:\\Windows\\Fonts\\PAPYRUS.TTF'
p1850
sg22
g23
sbag7
(g8
g9
NtRp1851
(dp1852
g12
g18
sg14
S'Gigi'
p1853
sg16
I400
sg17
g18
sg19
g18
sg20
S'c:\\windows\\fonts\\gigi.ttf'
p1854
sg22
g23
sbag7
(g8
g9
NtRp1855
(dp1856
g12
g18
sg14
S'Tempus Sans ITC'
p1857
sg16
I400
sg17
g18
sg19
g18
sg20
S'c:\\windows\\fonts\\tempsitc.ttf'
p1858
sg22
g23
sbag7
(g8
g9
NtRp1859
(dp1860
g12
g18
sg14
S'Lucida Bright'
p1861
sg16
I700
sg17
g18
sg19
g18
sg20
S'C:\\Windows\\Fonts\\LBRITED.TTF'
p1862
sg22
g23
sbag7
(g8
g9
NtRp1863
(dp1864
g12
g18
sg14
S'Berlin Sans FB'
p1865
sg16
I700
sg17
g18
sg19
g18
sg20
S'C:\\Windows\\Fonts\\BRLNSB.TTF'
p1866
sg22
g23
sbag7
(g8
g9
NtRp1867
(dp1868
g12
g70
sg14
S'LilyUPC'
p1869
sg16
I700
sg17
g18
sg19
g18
sg20
S'c:\\windows\\fonts\\upclbi.ttf'
p1870
sg22
g23
sbag7
(g8
g9
NtRp1871
(dp1872
g12
g18
sg14
S'FrankRuehl'
p1873
sg16
I400
sg17
g18
sg19
g18
sg20
S'c:\\windows\\fonts\\frank.ttf'
p1874
sg22
g23
sbag7
(g8
g9
NtRp1875
(dp1876
g12
g18
sg14
S'Wide Latin'
p1877
sg16
I400
sg17
g1741
sg19
g18
sg20
S'c:\\windows\\fonts\\latinwd.ttf'
p1878
sg22
g23
sbag7
(g8
g9
NtRp1879
(dp1880
g12
g18
sg14
S'Raavi'
p1881
sg16
I700
sg17
g18
sg19
g18
sg20
S'C:\\Windows\\Fonts\\raavib.ttf'
p1882
sg22
g23
sbag7
(g8
g9
NtRp1883
(dp1884
g12
g18
sg14
S'High Tower Text'
p1885
sg16
I400
sg17
g18
sg19
g18
sg20
S'c:\\windows\\fonts\\htowert.ttf'
p1886
sg22
g23
sbag7
(g8
g9
NtRp1887
(dp1888
g12
g18
sg14
S'Papyrus'
p1889
sg16
I400
sg17
g18
sg19
g18
sg20
S'c:\\windows\\fonts\\papyrus.ttf'
p1890
sg22
g23
sbag7
(g8
g9
NtRp1891
(dp1892
g12
g70
sg14
S'Lucida Bright'
p1893
sg16
I700
sg17
g18
sg19
g18
sg20
S'c:\\windows\\fonts\\lbritedi.ttf'
p1894
sg22
g23
sbag7
(g8
g9
NtRp1895
(dp1896
g12
g18
sg14
S'Computer'
p1897
sg16
I400
sg17
g18
sg19
g18
sg20
S'C:\\Windows\\Fonts\\computer.ttf'
p1898
sg22
g23
sbag7
(g8
g9
NtRp1899
(dp1900
g12
g18
sg14
S'Elephant'
p1901
sg16
I400
sg17
g18
sg19
g18
sg20
S'c:\\windows\\fonts\\elephnt.ttf'
p1902
sg22
g23
sbag7
(g8
g9
NtRp1903
(dp1904
g12
g18
sg14
S'Microsoft New Tai Lue'
p1905
sg16
I400
sg17
g18
sg19
g18
sg20
S'C:\\Windows\\Fonts\\ntailu.ttf'
p1906
sg22
g23
sbag7
(g8
g9
NtRp1907
(dp1908
g12
g70
sg14
S'LilyUPC'
p1909
sg16
I400
sg17
g18
sg19
g18
sg20
S'C:\\Windows\\Fonts\\upcli.ttf'
p1910
sg22
g23
sbag7
(g8
g9
NtRp1911
(dp1912
g12
g18
sg14
S'Franklin Gothic Demi Cond'
p1913
sg16
I600
sg17
g248
sg19
g18
sg20
S'c:\\windows\\fonts\\fradmcn.ttf'
p1914
sg22
g23
sbag7
(g8
g9
NtRp1915
(dp1916
g12
g70
sg14
S'Consolas'
p1917
sg16
I700
sg17
g18
sg19
g18
sg20
S'c:\\windows\\fonts\\consolaz.ttf'
p1918
sg22
g23
sbag7
(g8
g9
NtRp1919
(dp1920
g12
g70
sg14
S'Bookman Old Style'
p1921
sg16
I700
sg17
g18
sg19
g18
sg20
S'c:\\windows\\fonts\\bookosbi.ttf'
p1922
sg22
g23
sbag7
(g8
g9
NtRp1923
(dp1924
g12
g18
sg14
S'High Tower Text'
p1925
sg16
I400
sg17
g18
sg19
g18
sg20
S'C:\\Windows\\Fonts\\HTOWERT.TTF'
p1926
sg22
g23
sbag7
(g8
g9
NtRp1927
(dp1928
g12
g70
sg14
S'EucrosiaUPC'
p1929
sg16
I400
sg17
g18
sg19
g18
sg20
S'c:\\windows\\fonts\\upcei.ttf'
p1930
sg22
g23
sbag7
(g8
g9
NtRp1931
(dp1932
g12
g18
sg14
S'KodchiangUPC'
p1933
sg16
I700
sg17
g18
sg19
g18
sg20
S'c:\\windows\\fonts\\upckb.ttf'
p1934
sg22
g23
sbag7
(g8
g9
NtRp1935
(dp1936
g12
g18
sg14
S'Vani'
p1937
sg16
I700
sg17
g18
sg19
g18
sg20
S'C:\\Windows\\Fonts\\Vanib.ttf'
p1938
sg22
g23
sbag7
(g8
g9
NtRp1939
(dp1940
g12
g18
sg14
S'Tempus Sans ITC'
p1941
sg16
I400
sg17
g18
sg19
g18
sg20
S'C:\\Windows\\Fonts\\TEMPSITC.TTF'
p1942
sg22
g23
sbag7
(g8
g9
NtRp1943
(dp1944
g12
g70
sg14
S'Corbel'
p1945
sg16
I400
sg17
g18
sg19
g18
sg20
S'C:\\Windows\\Fonts\\corbeli.ttf'
p1946
sg22
g23
sbag7
(g8
g9
NtRp1947
(dp1948
g12
g18
sg14
S'Gisha'
p1949
sg16
I700
sg17
g18
sg19
g18
sg20
S'C:\\Windows\\Fonts\\gishabd.ttf'
p1950
sg22
g23
sbag7
(g8
g9
NtRp1951
(dp1952
g12
g18
sg14
S'Ubuntu Condensed'
p1953
sg16
I400
sg17
g248
sg19
g18
sg20
S'C:\\Windows\\Fonts\\Ubuntu-C.ttf'
p1954
sg22
g23
sbag7
(g8
g9
NtRp1955
(dp1956
g12
g70
sg14
S'Lucida Bright'
p1957
sg16
I400
sg17
g18
sg19
g18
sg20
S'C:\\Windows\\Fonts\\LBRITEI.TTF'
p1958
sg22
g23
sbag7
(g8
g9
NtRp1959
(dp1960
g12
g18
sg14
S'Perpetua'
p1961
sg16
I700
sg17
g18
sg19
g18
sg20
S'C:\\Windows\\Fonts\\PERB____.TTF'
p1962
sg22
g23
sbag7
(g8
g9
NtRp1963
(dp1964
g12
g18
sg14
S'Estrangelo Edessa'
p1965
sg16
I400
sg17
g18
sg19
g18
sg20
S'C:\\Windows\\Fonts\\estre.ttf'
p1966
sg22
g23
sbag7
(g8
g9
NtRp1967
(dp1968
g12
g18
sg14
S'Nyala'
p1969
sg16
I400
sg17
g18
sg19
g18
sg20
S'c:\\windows\\fonts\\nyala.ttf'
p1970
sg22
g23
sbag7
(g8
g9
NtRp1971
(dp1972
g12
g18
sg14
S'Bell MT'
p1973
sg16
I700
sg17
g18
sg19
g18
sg20
S'C:\\Windows\\Fonts\\BELLB.TTF'
p1974
sg22
g23
sbag7
(g8
g9
NtRp1975
(dp1976
g12
g18
sg14
S'Rockwell'
p1977
sg16
I400
sg17
g18
sg19
g18
sg20
S'c:\\windows\\fonts\\rock.ttf'
p1978
sg22
g23
sbag7
(g8
g9
NtRp1979
(dp1980
g12
g18
sg14
S'Ubuntu'
p1981
sg16
I700
sg17
g18
sg19
g18
sg20
S'c:\\windows\\fonts\\ubuntu-b.ttf'
p1982
sg22
g23
sbag7
(g8
g9
NtRp1983
(dp1984
g12
g18
sg14
S'Vrinda'
p1985
sg16
I400
sg17
g18
sg19
g18
sg20
S'C:\\Windows\\Fonts\\vrinda.ttf'
p1986
sg22
g23
sbag7
(g8
g9
NtRp1987
(dp1988
g12
g70
sg14
S'Lucida Sans'
p1989
sg16
I700
sg17
g18
sg19
g18
sg20
S'c:\\windows\\fonts\\lsansdi.ttf'
p1990
sg22
g23
sbag7
(g8
g9
NtRp1991
(dp1992
g12
g18
sg14
S'Tw Cen MT'
p1993
sg16
I700
sg17
g18
sg19
g18
sg20
S'c:\\windows\\fonts\\tcb_____.ttf'
p1994
sg22
g23
sbag7
(g8
g9
NtRp1995
(dp1996
g12
g70
sg14
S'Franklin Gothic Demi'
p1997
sg16
I600
sg17
g18
sg19
g18
sg20
S'C:\\Windows\\Fonts\\FRADMIT.TTF'
p1998
sg22
g23
sbag7
(g8
g9
NtRp1999
(dp2000
g12
g18
sg14
S'Century Gothic'
p2001
sg16
I700
sg17
g18
sg19
g18
sg20
S'C:\\Windows\\Fonts\\GOTHICB.TTF'
p2002
sg22
g23
sbag7
(g8
g9
NtRp2003
(dp2004
g12
g70
sg14
S'Rockwell'
p2005
sg16
I700
sg17
g18
sg19
g18
sg20
S'c:\\windows\\fonts\\rockbi.ttf'
p2006
sg22
g23
sbag7
(g8
g9
NtRp2007
(dp2008
g12
g18
sg14
S'Georgia'
p2009
sg16
I400
sg17
g18
sg19
g18
sg20
S'C:\\Windows\\Fonts\\georgia.ttf'
p2010
sg22
g23
sbag7
(g8
g9
NtRp2011
(dp2012
g12
g18
sg14
S'Niagara Solid'
p2013
sg16
I400
sg17
g18
sg19
g18
sg20
S'c:\\windows\\fonts\\niagsol.ttf'
p2014
sg22
g23
sbag7
(g8
g9
NtRp2015
(dp2016
g12
g18
sg14
S'Perpetua Titling MT'
p2017
sg16
I200
sg17
g18
sg19
g18
sg20
S'C:\\Windows\\Fonts\\PERTILI.TTF'
p2018
sg22
g23
sbag7
(g8
g9
NtRp2019
(dp2020
g12
g18
sg14
S'Ubuntu'
p2021
sg16
I700
sg17
g18
sg19
g18
sg20
S'C:\\Windows\\Fonts\\Ubuntu-B.ttf'
p2022
sg22
g23
sbag7
(g8
g9
NtRp2023
(dp2024
g12
g18
sg14
S'Elephant'
p2025
sg16
I400
sg17
g18
sg19
g18
sg20
S'C:\\Windows\\Fonts\\ELEPHNT.TTF'
p2026
sg22
g23
sbag7
(g8
g9
NtRp2027
(dp2028
g12
g18
sg14
S'Amstrad CPC464'
p2029
sg16
I400
sg17
g18
sg19
g18
sg20
S'C:\\Windows\\Fonts\\amstrad_cpc464.ttf'
p2030
sg22
g23
sbag7
(g8
g9
NtRp2031
(dp2032
g12
g18
sg14
S'OCR A Extended'
p2033
sg16
I400
sg17
g18
sg19
g18
sg20
S'C:\\Windows\\Fonts\\OCRAEXT.TTF'
p2034
sg22
g23
sbag7
(g8
g9
NtRp2035
(dp2036
g12
g18
sg14
S'Goudy Stout'
p2037
sg16
I400
sg17
g18
sg19
g18
sg20
S'c:\\windows\\fonts\\goudysto.ttf'
p2038
sg22
g23
sbag7
(g8
g9
NtRp2039
(dp2040
g12
g70
sg14
S'Bell MT'
p2041
sg16
I400
sg17
g18
sg19
g18
sg20
S'C:\\Windows\\Fonts\\BELLI.TTF'
p2042
sg22
g23
sbag7
(g8
g9
NtRp2043
(dp2044
g12
g18
sg14
S'Eras Bold ITC'
p2045
sg16
I700
sg17
g18
sg19
g18
sg20
S'C:\\Windows\\Fonts\\ERASBD.TTF'
p2046
sg22
g23
sbag7
(g8
g9
NtRp2047
(dp2048
g12
g18
sg14
S'AngsanaUPC'
p2049
sg16
I700
sg17
g18
sg19
g18
sg20
S'C:\\Windows\\Fonts\\angsaub.ttf'
p2050
sg22
g23
sbag7
(g8
g9
NtRp2051
(dp2052
g12
g70
sg14
S'Garamond'
p2053
sg16
I400
sg17
g18
sg19
g18
sg20
S'C:\\Windows\\Fonts\\GARAIT.TTF'
p2054
sg22
g23
sbag7
(g8
g9
NtRp2055
(dp2056
g12
g18
sg14
S'Lao UI'
p2057
sg16
I700
sg17
g18
sg19
g18
sg20
S'C:\\Windows\\Fonts\\LaoUIb.ttf'
p2058
sg22
g23
sbag7
(g8
g9
NtRp2059
(dp2060
g12
g18
sg14
S'Playbill'
p2061
sg16
I400
sg17
g18
sg19
g18
sg20
S'C:\\Windows\\Fonts\\PLAYBILL.TTF'
p2062
sg22
g23
sbag7
(g8
g9
NtRp2063
(dp2064
g12
g18
sg14
S'Algerian'
p2065
sg16
I400
sg17
g18
sg19
g18
sg20
S'c:\\windows\\fonts\\alger.ttf'
p2066
sg22
g23
sbag7
(g8
g9
NtRp2067
(dp2068
g12
g18
sg14
S'Matura MT Script Capitals'
p2069
sg16
I400
sg17
g18
sg19
g18
sg20
S'c:\\windows\\fonts\\maturasc.ttf'
p2070
sg22
g23
sbag7
(g8
g9
NtRp2071
(dp2072
g12
g70
sg14
S'CordiaUPC'
p2073
sg16
I400
sg17
g18
sg19
g18
sg20
S'c:\\windows\\fonts\\cordiaui.ttf'
p2074
sg22
g23
sbag7
(g8
g9
NtRp2075
(dp2076
g12
g18
sg14
S'Lucida Sans Typewriter'
p2077
sg16
I400
sg17
g18
sg19
g18
sg20
S'c:\\windows\\fonts\\ltype.ttf'
p2078
sg22
g23
sbag7
(g8
g9
NtRp2079
(dp2080
g12
g18
sg14
S'Garamond'
p2081
sg16
I400
sg17
g18
sg19
g18
sg20
S'C:\\Windows\\Fonts\\GARA.TTF'
p2082
sg22
g23
sbag7
(g8
g9
NtRp2083
(dp2084
g12
g18
sg14
S'Franklin Gothic Demi'
p2085
sg16
I600
sg17
g18
sg19
g18
sg20
S'C:\\Windows\\Fonts\\FRADM.TTF'
p2086
sg22
g23
sbag7
(g8
g9
NtRp2087
(dp2088
g12
g18
sg14
S'Ravie'
p2089
sg16
I400
sg17
g18
sg19
g18
sg20
S'C:\\Windows\\Fonts\\RAVIE.TTF'
p2090
sg22
g23
sbag7
(g8
g9
NtRp2091
(dp2092
g12
g18
sg14
S'Palace Script MT'
p2093
sg16
I400
sg17
g18
sg19
g18
sg20
S'c:\\windows\\fonts\\palscri.ttf'
p2094
sg22
g23
sbag7
(g8
g9
NtRp2095
(dp2096
g12
g18
sg14
S'Century Gothic'
p2097
sg16
I400
sg17
g18
sg19
g18
sg20
S'c:\\windows\\fonts\\gothic.ttf'
p2098
sg22
g23
sbag7
(g8
g9
NtRp2099
(dp2100
g12
g70
sg14
S'Ubuntu'
p2101
sg16
I200
sg17
g18
sg19
g18
sg20
S'C:\\Windows\\Fonts\\Ubuntu-LI.ttf'
p2102
sg22
g23
sbag7
(g8
g9
NtRp2103
(dp2104
g12
g18
sg14
S'Shonar Bangla'
p2105
sg16
I700
sg17
g18
sg19
g18
sg20
S'C:\\Windows\\Fonts\\Shonarb.ttf'
p2106
sg22
g23
sbag7
(g8
g9
NtRp2107
(dp2108
g12
g70
sg14
S'Ubuntu Mono'
p2109
sg16
I400
sg17
g18
sg19
g18
sg20
S'c:\\windows\\fonts\\ubuntumono-ri.ttf'
p2110
sg22
g23
sbag7
(g8
g9
NtRp2111
(dp2112
g12
g18
sg14
S'Webdings'
p2113
sg16
I400
sg17
g18
sg19
g18
sg20
S'C:\\Windows\\Fonts\\webdings.ttf'
p2114
sg22
g23
sbag7
(g8
g9
NtRp2115
(dp2116
g12
g18
sg14
S'Perpetua'
p2117
sg16
I400
sg17
g18
sg19
g18
sg20
S'c:\\windows\\fonts\\per_____.ttf'
p2118
sg22
g23
sbag7
(g8
g9
NtRp2119
(dp2120
g12
g18
sg14
S'Garamond'
p2121
sg16
I400
sg17
g18
sg19
g18
sg20
S'c:\\windows\\fonts\\gara.ttf'
p2122
sg22
g23
sbag7
(g8
g9
NtRp2123
(dp2124
g12
g18
sg14
S'Showcard Gothic'
p2125
sg16
I400
sg17
g18
sg19
g18
sg20
S'C:\\Windows\\Fonts\\SHOWG.TTF'
p2126
sg22
g23
sbag7
(g8
g9
NtRp2127
(dp2128
g12
g70
sg14
S'Lucida Fax'
p2129
sg16
I400
sg17
g18
sg19
g18
sg20
S'c:\\windows\\fonts\\lfaxi.ttf'
p2130
sg22
g23
sbag7
(g8
g9
NtRp2131
(dp2132
g12
g18
sg14
S'Franklin Gothic Heavy'
p2133
sg16
I800
sg17
g18
sg19
g18
sg20
S'c:\\windows\\fonts\\frahv.ttf'
p2134
sg22
g23
sbag7
(g8
g9
NtRp2135
(dp2136
g12
g18
sg14
S'Niagara Engraved'
p2137
sg16
I400
sg17
g18
sg19
g18
sg20
S'C:\\Windows\\Fonts\\NIAGENG.TTF'
p2138
sg22
g23
sbag7
(g8
g9
NtRp2139
(dp2140
g12
g18
sg14
S'Browallia New'
p2141
sg16
I400
sg17
g18
sg19
g18
sg20
S'C:\\Windows\\Fonts\\browa.ttf'
p2142
sg22
g23
sbag7
(g8
g9
NtRp2143
(dp2144
g12
g18
sg14
S'Lao UI'
p2145
sg16
I400
sg17
g18
sg19
g18
sg20
S'C:\\Windows\\Fonts\\LaoUI.ttf'
p2146
sg22
g23
sbag7
(g8
g9
NtRp2147
(dp2148
g12
g18
sg14
S'Andalus'
p2149
sg16
I400
sg17
g18
sg19
g18
sg20
S'C:\\Windows\\Fonts\\andlso.ttf'
p2150
sg22
g23
sbag7
(g8
g9
NtRp2151
(dp2152
g12
g18
sg14
S'Informal Roman'
p2153
sg16
I500
sg17
g18
sg19
g18
sg20
S'C:\\Windows\\Fonts\\INFROMAN.TTF'
p2154
sg22
g23
sbag7
(g8
g9
NtRp2155
(dp2156
g12
g18
sg14
S'Microsoft New Tai Lue'
p2157
sg16
I700
sg17
g18
sg19
g18
sg20
S'C:\\Windows\\Fonts\\ntailub.ttf'
p2158
sg22
g23
sbag7
(g8
g9
NtRp2159
(dp2160
g12
g18
sg14
S'Vani'
p2161
sg16
I700
sg17
g18
sg19
g18
sg20
S'c:\\windows\\fonts\\vanib.ttf'
p2162
sg22
g23
sbag7
(g8
g9
NtRp2163
(dp2164
g12
g18
sg14
S'Ubuntu Mono'
p2165
sg16
I700
sg17
g18
sg19
g18
sg20
S'c:\\windows\\fonts\\ubuntumono-b.ttf'
p2166
sg22
g23
sbag7
(g8
g9
NtRp2167
(dp2168
g12
g18
sg14
S'MS Reference Specialty'
p2169
sg16
I400
sg17
g18
sg19
g18
sg20
S'c:\\windows\\fonts\\refspcl.ttf'
p2170
sg22
g23
sbag7
(g8
g9
NtRp2171
(dp2172
g12
g70
sg14
S'Goudy Old Style'
p2173
sg16
I400
sg17
g18
sg19
g18
sg20
S'c:\\windows\\fonts\\goudosi.ttf'
p2174
sg22
g23
sbag7
(g8
g9
NtRp2175
(dp2176
g12
g18
sg14
S'Lucida Bright'
p2177
sg16
I400
sg17
g18
sg19
g18
sg20
S'c:\\windows\\fonts\\lbrite.ttf'
p2178
sg22
g23
sbag7
(g8
g9
NtRp2179
(dp2180
g12
g18
sg14
S'Kokila'
p2181
sg16
I400
sg17
g18
sg19
g18
sg20
S'C:\\Windows\\Fonts\\kokila.ttf'
p2182
sg22
g23
sbag7
(g8
g9
NtRp2183
(dp2184
g12
g18
sg14
S'Verdana'
p2185
sg16
I400
sg17
g18
sg19
g18
sg20
S'C:\\Windows\\Fonts\\verdana.ttf'
p2186
sg22
g23
sbag7
(g8
g9
NtRp2187
(dp2188
g12
g18
sg14
S'French Script MT'
p2189
sg16
I400
sg17
g18
sg19
g18
sg20
S'c:\\windows\\fonts\\frscript.ttf'
p2190
sg22
g23
sbag7
(g8
g9
NtRp2191
(dp2192
g12
g18
sg14
S'Rockwell'
p2193
sg16
I400
sg17
g18
sg19
g18
sg20
S'C:\\Windows\\Fonts\\ROCK.TTF'
p2194
sg22
g23
sbag7
(g8
g9
NtRp2195
(dp2196
g12
g70
sg14
S'Arial'
p2197
sg16
I700
sg17
g248
sg19
g18
sg20
S'C:\\Windows\\Fonts\\ARIALNBI.TTF'
p2198
sg22
g23
sbag7
(g8
g9
NtRp2199
(dp2200
g12
g18
sg14
S'Bodoni MT'
p2201
sg16
I900
sg17
g18
sg19
g18
sg20
S'c:\\windows\\fonts\\bod_blar.ttf'
p2202
sg22
g23
sbag7
(g8
g9
NtRp2203
(dp2204
g12
g18
sg14
S'Copperplate Gothic Bold'
p2205
sg16
I700
sg17
g18
sg19
g18
sg20
S'c:\\windows\\fonts\\coprgtb.ttf'
p2206
sg22
g23
sbag7
(g8
g9
NtRp2207
(dp2208
g12
g70
sg14
S'Goudy Old Style'
p2209
sg16
I400
sg17
g18
sg19
g18
sg20
S'C:\\Windows\\Fonts\\GOUDOSI.TTF'
p2210
sg22
g23
sbag7
(g8
g9
NtRp2211
(dp2212
g12
g18
sg14
S'Harrington'
p2213
sg16
I400
sg17
g18
sg19
g18
sg20
S'C:\\Windows\\Fonts\\HARNGTON.TTF'
p2214
sg22
g23
sbag7
(g8
g9
NtRp2215
(dp2216
g12
g18
sg14
S'Gill Sans MT Condensed'
p2217
sg16
I400
sg17
g248
sg19
g18
sg20
S'c:\\windows\\fonts\\gilc____.ttf'
p2218
sg22
g23
sbag7
(g8
g9
NtRp2219
(dp2220
g12
g18
sg14
S'Parchment'
p2221
sg16
I400
sg17
g18
sg19
g18
sg20
S'C:\\Windows\\Fonts\\PARCHM.TTF'
p2222
sg22
g23
sbag7
(g8
g9
NtRp2223
(dp2224
g12
g18
sg14
S'Mistral'
p2225
sg16
I400
sg17
g18
sg19
g18
sg20
S'c:\\windows\\fonts\\mistral.ttf'
p2226
sg22
g23
sbag7
(g8
g9
NtRp2227
(dp2228
g12
g70
sg14
S'Browallia New'
p2229
sg16
I700
sg17
g18
sg19
g18
sg20
S'c:\\windows\\fonts\\browaz.ttf'
p2230
sg22
g23
sbag7
(g8
g9
NtRp2231
(dp2232
g12
g18
sg14
S'Rockwell Condensed'
p2233
sg16
I400
sg17
g248
sg19
g18
sg20
S'c:\\windows\\fonts\\rocc____.ttf'
p2234
sg22
g23
sbag7
(g8
g9
NtRp2235
(dp2236
g12
g70
sg14
S'DilleniaUPC'
p2237
sg16
I400
sg17
g18
sg19
g18
sg20
S'C:\\Windows\\Fonts\\upcdi.ttf'
p2238
sg22
g23
sbag7
(g8
g9
NtRp2239
(dp2240
g12
g18
sg14
S'CordiaUPC'
p2241
sg16
I400
sg17
g18
sg19
g18
sg20
S'c:\\windows\\fonts\\cordiau.ttf'
p2242
sg22
g23
sbag7
(g8
g9
NtRp2243
(dp2244
g12
g18
sg14
S'EucrosiaUPC'
p2245
sg16
I700
sg17
g18
sg19
g18
sg20
S'c:\\windows\\fonts\\upceb.ttf'
p2246
sg22
g23
sbag7
(g8
g9
NtRp2247
(dp2248
g12
g70
sg14
S'Vivaldi'
p2249
sg16
I400
sg17
g18
sg19
g18
sg20
S'C:\\Windows\\Fonts\\VIVALDII.TTF'
p2250
sg22
g23
sbag7
(g8
g9
NtRp2251
(dp2252
g12
g18
sg14
S'Bookman Old Style'
p2253
sg16
I400
sg17
g18
sg19
g18
sg20
S'C:\\Windows\\Fonts\\BOOKOS.TTF'
p2254
sg22
g23
sbag7
(g8
g9
NtRp2255
(dp2256
g12
g18
sg14
S'Tahoma'
p2257
sg16
I400
sg17
g18
sg19
g18
sg20
S'C:\\Windows\\Fonts\\tahoma.ttf'
p2258
sg22
g23
sbag7
(g8
g9
NtRp2259
(dp2260
g12
g18
sg14
S'Magneto'
p2261
sg16
I700
sg17
g18
sg19
g18
sg20
S'C:\\Windows\\Fonts\\MAGNETOB.TTF'
p2262
sg22
g23
sbag7
(g8
g9
NtRp2263
(dp2264
g12
g18
sg14
S'Agency FB'
p2265
sg16
I700
sg17
g18
sg19
g18
sg20
S'C:\\Windows\\Fonts\\AGENCYB.TTF'
p2266
sg22
g23
sbag7
(g8
g9
NtRp2267
(dp2268
g12
g18
sg14
S'Tw Cen MT Condensed'
p2269
sg16
I400
sg17
g248
sg19
g18
sg20
S'c:\\windows\\fonts\\tccm____.ttf'
p2270
sg22
g23
sbag7
(g8
g9
NtRp2271
(dp2272
g12
g18
sg14
S'Gill Sans MT Ext Condensed Bold'
p2273
sg16
I700
sg17
g248
sg19
g18
sg20
S'c:\\windows\\fonts\\glsnecb.ttf'
p2274
sg22
g23
sbag7
(g8
g9
NtRp2275
(dp2276
g12
g70
sg14
S'Angsana New'
p2277
sg16
I700
sg17
g18
sg19
g18
sg20
S'c:\\windows\\fonts\\angsaz.ttf'
p2278
sg22
g23
sbag7
(g8
g9
NtRp2279
(dp2280
g12
g18
sg14
S'Franklin Gothic Medium Cond'
p2281
sg16
I500
sg17
g248
sg19
g18
sg20
S'C:\\Windows\\Fonts\\FRAMDCN.TTF'
p2282
sg22
g23
sbag7
(g8
g9
NtRp2283
(dp2284
g12
g18
sg14
S'Imprint MT Shadow'
p2285
sg16
I400
sg17
g18
sg19
g18
sg20
S'C:\\Windows\\Fonts\\IMPRISHA.TTF'
p2286
sg22
g23
sbag7
(g8
g9
NtRp2287
(dp2288
g12
g18
sg14
S'Gill Sans MT'
p2289
sg16
I400
sg17
g18
sg19
g18
sg20
S'C:\\Windows\\Fonts\\GIL_____.TTF'
p2290
sg22
g23
sbag7
(g8
g9
NtRp2291
(dp2292
g12
g18
sg14
S'Footlight MT Light'
p2293
sg16
I200
sg17
g18
sg19
g18
sg20
S'C:\\Windows\\Fonts\\FTLTLT.TTF'
p2294
sg22
g23
sbag7
(g8
g9
NtRp2295
(dp2296
g12
g70
sg14
S'Ubuntu'
p2297
sg16
I700
sg17
g18
sg19
g18
sg20
S'C:\\Windows\\Fonts\\Ubuntu-BI.ttf'
p2298
sg22
g23
sbag7
(g8
g9
NtRp2299
(dp2300
g12
g18
sg14
S'Century Gothic'
p2301
sg16
I700
sg17
g18
sg19
g18
sg20
S'c:\\windows\\fonts\\gothicb.ttf'
p2302
sg22
g23
sbag7
(g8
g9
NtRp2303
(dp2304
g12
g70
sg14
S'Vivaldi'
p2305
sg16
I400
sg17
g18
sg19
g18
sg20
S'c:\\windows\\fonts\\vivaldii.ttf'
p2306
sg22
g23
sbag7
(g8
g9
NtRp2307
(dp2308
g12
g18
sg14
S'Bookman Old Style'
p2309
sg16
I400
sg17
g18
sg19
g18
sg20
S'c:\\windows\\fonts\\bookos.ttf'
p2310
sg22
g23
sbag7
(g8
g9
NtRp2311
(dp2312
g12
g70
sg14
S'Ubuntu'
p2313
sg16
I500
sg17
g18
sg19
g18
sg20
S'C:\\Windows\\Fonts\\Ubuntu-MI.ttf'
p2314
sg22
g23
sbag7
(g8
g9
NtRp2315
(dp2316
g12
g70
sg14
S'Californian FB'
p2317
sg16
I400
sg17
g18
sg19
g18
sg20
S'C:\\Windows\\Fonts\\CALIFI.TTF'
p2318
sg22
g23
sbag7
(g8
g9
NtRp2319
(dp2320
g12
g18
sg14
S'Berlin Sans FB Demi'
p2321
sg16
I700
sg17
g18
sg19
g18
sg20
S'c:\\windows\\fonts\\brlnsdb.ttf'
p2322
sg22
g23
sbag7
(g8
g9
NtRp2323
(dp2324
g12
g18
sg14
S'Perpetua'
p2325
sg16
I700
sg17
g18
sg19
g18
sg20
S'c:\\windows\\fonts\\perb____.ttf'
p2326
sg22
g23
sbag7
(g8
g9
NtRp2327
(dp2328
g12
g70
sg14
S'Rage Italic'
p2329
sg16
I400
sg17
g18
sg19
g18
sg20
S'c:\\windows\\fonts\\rage.ttf'
p2330
sg22
g23
sbag7
(g8
g9
NtRp2331
(dp2332
g12
g70
sg14
S'Arial'
p2333
sg16
I700
sg17
g248
sg19
g18
sg20
S'c:\\windows\\fonts\\arialnbi.ttf'
p2334
sg22
g23
sbag7
(g8
g9
NtRp2335
(dp2336
g12
g18
sg14
S'Bodoni MT'
p2337
sg16
I700
sg17
g248
sg19
g18
sg20
S'c:\\windows\\fonts\\bod_cb.ttf'
p2338
sg22
g23
sbag7
(g8
g9
NtRp2339
(dp2340
g12
g18
sg14
S'Parchment'
p2341
sg16
I400
sg17
g18
sg19
g18
sg20
S'c:\\windows\\fonts\\parchm.ttf'
p2342
sg22
g23
sbag7
(g8
g9
NtRp2343
(dp2344
g12
g70
sg14
S'Harlow Solid Italic'
p2345
sg16
I400
sg17
g18
sg19
g18
sg20
S'c:\\windows\\fonts\\harlowsi.ttf'
p2346
sg22
g23
sbag7
(g8
g9
NtRp2347
(dp2348
g12
g18
sg14
S'Poor Richard'
p2349
sg16
I400
sg17
g18
sg19
g18
sg20
S'C:\\Windows\\Fonts\\POORICH.TTF'
p2350
sg22
g23
sbag7
(g8
g9
NtRp2351
(dp2352
g12
g18
sg14
S'Bodoni MT'
p2353
sg16
I400
sg17
g248
sg19
g18
sg20
S'C:\\Windows\\Fonts\\BOD_CR.TTF'
p2354
sg22
g23
sbag7
(g8
g9
NtRp2355
(dp2356
g12
g18
sg14
S'Showcard Gothic'
p2357
sg16
I400
sg17
g18
sg19
g18
sg20
S'c:\\windows\\fonts\\showg.ttf'
p2358
sg22
g23
sbag7
(g8
g9
NtRp2359
(dp2360
g12
g70
sg14
S'Arial'
p2361
sg16
I400
sg17
g248
sg19
g18
sg20
S'c:\\windows\\fonts\\arialni.ttf'
p2362
sg22
g23
sbag7
(g8
g9
NtRp2363
(dp2364
g12
g70
sg14
S'Lucida Sans'
p2365
sg16
I700
sg17
g18
sg19
g18
sg20
S'C:\\Windows\\Fonts\\LSANSDI.TTF'
p2366
sg22
g23
sbag7
(g8
g9
NtRp2367
(dp2368
g12
g70
sg14
S'Century Gothic'
p2369
sg16
I400
sg17
g18
sg19
g18
sg20
S'c:\\windows\\fonts\\gothici.ttf'
p2370
sg22
g23
sbag7
(g8
g9
NtRp2371
(dp2372
g12
g18
sg14
S'TeamViewer10'
p2373
sg16
I400
sg17
g18
sg19
g18
sg20
S'C:\\Windows\\Fonts\\teamviewer10.otf'
p2374
sg22
g23
sbag7
(g8
g9
NtRp2375
(dp2376
g12
g18
sg14
S'Rockwell Extra Bold'
p2377
sg16
I700
sg17
g18
sg19
g18
sg20
S'C:\\Windows\\Fonts\\ROCKEB.TTF'
p2378
sg22
g23
sbag7
(g8
g9
NtRp2379
(dp2380
g12
g18
sg14
S'Vani'
p2381
sg16
I400
sg17
g18
sg19
g18
sg20
S'C:\\Windows\\Fonts\\Vani.ttf'
p2382
sg22
g23
sbag7
(g8
g9
NtRp2383
(dp2384
g12
g18
sg14
S'Eras Demi ITC'
p2385
sg16
I600
sg17
g18
sg19
g18
sg20
S'C:\\Windows\\Fonts\\ERASDEMI.TTF'
p2386
sg22
g23
sbag7
(g8
g9
NtRp2387
(dp2388
g12
g18
sg14
S'Lao UI'
p2389
sg16
I700
sg17
g18
sg19
g18
sg20
S'c:\\windows\\fonts\\laouib.ttf'
p2390
sg22
g23
sbag7
(g8
g9
NtRp2391
(dp2392
g12
g18
sg14
S'Lucida Bright'
p2393
sg16
I400
sg17
g18
sg19
g18
sg20
S'C:\\Windows\\Fonts\\LBRITE.TTF'
p2394
sg22
g23
sbag7
(g8
g9
NtRp2395
(dp2396
g12
g18
sg14
S'Forte'
p2397
sg16
I400
sg17
g18
sg19
g18
sg20
S'c:\\windows\\fonts\\forte.ttf'
p2398
sg22
g23
sbag7
(g8
g9
NtRp2399
(dp2400
g12
g18
sg14
S'Palatino Linotype'
p2401
sg16
I400
sg17
g18
sg19
g18
sg20
S'c:\\windows\\fonts\\pala.ttf'
p2402
sg22
g23
sbag7
(g8
g9
NtRp2403
(dp2404
g12
g18
sg14
S'Agency FB'
p2405
sg16
I400
sg17
g18
sg19
g18
sg20
S'C:\\Windows\\Fonts\\AGENCYR.TTF'
p2406
sg22
g23
sbag7
(g8
g9
NtRp2407
(dp2408
g12
g18
sg14
S'Goudy Old Style'
p2409
sg16
I400
sg17
g18
sg19
g18
sg20
S'c:\\windows\\fonts\\goudos.ttf'
p2410
sg22
g23
sbag7
(g8
g9
NtRp2411
(dp2412
g12
g18
sg14
S'Tw Cen MT Condensed Extra Bold'
p2413
sg16
I700
sg17
g248
sg19
g18
sg20
S'c:\\windows\\fonts\\tcceb.ttf'
p2414
sg22
g23
sbag7
(g8
g9
NtRp2415
(dp2416
g12
g18
sg14
S'Kunstler Script'
p2417
sg16
I400
sg17
g18
sg19
g18
sg20
S'c:\\windows\\fonts\\kunstler.ttf'
p2418
sg22
g23
sbag7
(g8
g9
NtRp2419
(dp2420
g12
g18
sg14
S'Arial Unicode MS'
p2421
sg16
I400
sg17
g18
sg19
g18
sg20
S'C:\\Windows\\Fonts\\ARIALUNI.TTF'
p2422
sg22
g23
sbag7
(g8
g9
NtRp2423
(dp2424
g12
g18
sg14
S'Algerian'
p2425
sg16
I400
sg17
g18
sg19
g18
sg20
S'C:\\Windows\\Fonts\\ALGER.TTF'
p2426
sg22
g23
sbag7
(g8
g9
NtRp2427
(dp2428
g12
g18
sg14
S'Rod'
p2429
sg16
I400
sg17
g18
sg19
g18
sg20
S'c:\\windows\\fonts\\rod.ttf'
p2430
sg22
g23
sbag7
(g8
g9
NtRp2431
(dp2432
g12
g18
sg14
S'Segoe UI Symbol'
p2433
sg16
I400
sg17
g18
sg19
g18
sg20
S'c:\\windows\\fonts\\seguisym.ttf'
p2434
sg22
g23
sbag7
(g8
g9
NtRp2435
(dp2436
g12
g18
sg14
S'Bodoni MT'
p2437
sg16
I900
sg17
g18
sg19
g18
sg20
S'C:\\Windows\\Fonts\\BOD_BLAR.TTF'
p2438
sg22
g23
sbag7
(g8
g9
NtRp2439
(dp2440
g12
g18
sg14
S'Snap ITC'
p2441
sg16
I400
sg17
g18
sg19
g18
sg20
S'c:\\windows\\fonts\\snap____.ttf'
p2442
sg22
g23
sbag7
(g8
g9
NtRp2443
(dp2444
g12
g70
sg14
S'Candara'
p2445
sg16
I700
sg17
g18
sg19
g18
sg20
S'c:\\windows\\fonts\\candaraz.ttf'
p2446
sg22
g23
sbag7
(g8
g9
NtRp2447
(dp2448
g12
g18
sg14
S'Agency FB'
p2449
sg16
I400
sg17
g18
sg19
g18
sg20
S'c:\\windows\\fonts\\agencyr.ttf'
p2450
sg22
g23
sbag7
(g8
g9
NtRp2451
(dp2452
g12
g18
sg14
S'Edwardian Script ITC'
p2453
sg16
I400
sg17
g18
sg19
g18
sg20
S'c:\\windows\\fonts\\itcedscr.ttf'
p2454
sg22
g23
sbag7
(g8
g9
NtRp2455
(dp2456
g12
g18
sg14
S'Edwardian Script ITC'
p2457
sg16
I400
sg17
g18
sg19
g18
sg20
S'C:\\Windows\\Fonts\\ITCEDSCR.TTF'
p2458
sg22
g23
sbag7
(g8
g9
NtRp2459
(dp2460
g12
g70
sg14
S'Century Schoolbook'
p2461
sg16
I400
sg17
g18
sg19
g18
sg20
S'C:\\Windows\\Fonts\\SCHLBKI.TTF'
p2462
sg22
g23
sbag7
(g8
g9
NtRp2463
(dp2464
g12
g70
sg14
S'Ubuntu Mono'
p2465
sg16
I400
sg17
g18
sg19
g18
sg20
S'C:\\Windows\\Fonts\\UbuntuMono-RI.ttf'
p2466
sg22
g23
sbag7
(g8
g9
NtRp2467
(dp2468
g12
g18
sg14
S'Century Schoolbook'
p2469
sg16
I400
sg17
g18
sg19
g18
sg20
S'C:\\Windows\\Fonts\\CENSCBK.TTF'
p2470
sg22
g23
sbag7
(g8
g9
NtRp2471
(dp2472
g12
g18
sg14
S'ZWAdobeF'
p2473
sg16
I400
sg17
g18
sg19
g18
sg20
S'c:\\windows\\fonts\\zwadobef.ttf'
p2474
sg22
g23
sbag7
(g8
g9
NtRp2475
(dp2476
g12
g18
sg14
S'Goudy Stout'
p2477
sg16
I400
sg17
g18
sg19
g18
sg20
S'C:\\Windows\\Fonts\\GOUDYSTO.TTF'
p2478
sg22
g23
sbag7
(g8
g9
NtRp2479
(dp2480
g12
g18
sg14
S'Old English Text MT'
p2481
sg16
I400
sg17
g18
sg19
g18
sg20
S'c:\\windows\\fonts\\oldengl.ttf'
p2482
sg22
g23
sbag7
(g8
g9
NtRp2483
(dp2484
g12
g18
sg14
S'Georgia'
p2485
sg16
I700
sg17
g18
sg19
g18
sg20
S'c:\\windows\\fonts\\georgiab.ttf'
p2486
sg22
g23
sbag7
(g8
g9
NtRp2487
(dp2488
g12
g18
sg14
S'FangSong'
p2489
sg16
I400
sg17
g18
sg19
g18
sg20
S'C:\\Windows\\Fonts\\simfang.ttf'
p2490
sg22
g23
sbag7
(g8
g9
NtRp2491
(dp2492
g12
g18
sg14
S'Viner Hand ITC'
p2493
sg16
I400
sg17
g18
sg19
g18
sg20
S'C:\\Windows\\Fonts\\VINERITC.TTF'
p2494
sg22
g23
sbag7
(g8
g9
NtRp2495
(dp2496
g12
g18
sg14
S'Niagara Engraved'
p2497
sg16
I400
sg17
g18
sg19
g18
sg20
S'c:\\windows\\fonts\\niageng.ttf'
p2498
sg22
g23
sbag7
(g8
g9
NtRp2499
(dp2500
g12
g18
sg14
S'MS Reference Specialty'
p2501
sg16
I400
sg17
g18
sg19
g18
sg20
S'C:\\Windows\\Fonts\\REFSPCL.TTF'
p2502
sg22
g23
sbag7
(g8
g9
NtRp2503
(dp2504
g12
g70
sg14
S'Rockwell'
p2505
sg16
I700
sg17
g18
sg19
g18
sg20
S'C:\\Windows\\Fonts\\ROCKBI.TTF'
p2506
sg22
g23
sbag7
(g8
g9
NtRp2507
(dp2508
g12
g18
sg14
S'Lucida Sans'
p2509
sg16
I700
sg17
g18
sg19
g18
sg20
S'c:\\windows\\fonts\\lsansd.ttf'
p2510
sg22
g23
sbag7
(g8
g9
NtRp2511
(dp2512
g12
g18
sg14
S'Rockwell Condensed'
p2513
sg16
I400
sg17
g248
sg19
g18
sg20
S'C:\\Windows\\Fonts\\ROCC____.TTF'
p2514
sg22
g23
sbag7
(g8
g9
NtRp2515
(dp2516
g12
g18
sg14
S'MS Outlook'
p2517
sg16
I400
sg17
g18
sg19
g18
sg20
S'C:\\Windows\\Fonts\\OUTLOOK.TTF'
p2518
sg22
g23
sbag7
(g8
g9
NtRp2519
(dp2520
g12
g70
sg14
S'Lucida Bright'
p2521
sg16
I400
sg17
g18
sg19
g18
sg20
S'c:\\windows\\fonts\\lbritei.ttf'
p2522
sg22
g23
sbag7
(g8
g9
NtRp2523
(dp2524
g12
g18
sg14
S'Bodoni MT'
p2525
sg16
I400
sg17
g18
sg19
g18
sg20
S'C:\\Windows\\Fonts\\BOD_R.TTF'
p2526
sg22
g23
sbag7
(g8
g9
NtRp2527
(dp2528
g12
g70
sg14
S'High Tower Text'
p2529
sg16
I400
sg17
g18
sg19
g18
sg20
S'c:\\windows\\fonts\\htowerti.ttf'
p2530
sg22
g23
sbag7
(g8
g9
NtRp2531
(dp2532
g12
g18
sg14
S'Onyx'
p2533
sg16
I400
sg17
g18
sg19
g18
sg20
S'c:\\windows\\fonts\\onyx.ttf'
p2534
sg22
g23
sbag7
(g8
g9
NtRp2535
(dp2536
g12
g18
sg14
S'Kristen ITC'
p2537
sg16
I400
sg17
g18
sg19
g18
sg20
S'c:\\windows\\fonts\\itckrist.ttf'
p2538
sg22
g23
sbag7
(g8
g9
NtRp2539
(dp2540
g12
g18
sg14
S'Ubuntu'
p2541
sg16
I200
sg17
g18
sg19
g18
sg20
S'c:\\windows\\fonts\\ubuntu-l.ttf'
p2542
sg22
g23
sbag7
(g8
g9
NtRp2543
(dp2544
g12
g18
sg14
S'Lucida Bright'
p2545
sg16
I700
sg17
g18
sg19
g18
sg20
S'c:\\windows\\fonts\\lbrited.ttf'
p2546
sg22
g23
sbag7
(g8
g9
NtRp2547
(dp2548
g12
g18
sg14
S'Gill Sans MT Condensed'
p2549
sg16
I400
sg17
g248
sg19
g18
sg20
S'C:\\Windows\\Fonts\\GILC____.TTF'
p2550
sg22
g23
sbag7
(g8
g9
NtRp2551
(dp2552
g12
g18
sg14
S'Goudy Old Style'
p2553
sg16
I400
sg17
g18
sg19
g18
sg20
S'C:\\Windows\\Fonts\\GOUDOS.TTF'
p2554
sg22
g23
sbag7
(g8
g9
NtRp2555
(dp2556
g12
g18
sg14
S'Hybrid'
p2557
sg16
I700
sg17
g18
sg19
g18
sg20
S'C:\\Windows\\Fonts\\Hybrid.ttf'
p2558
sg22
g23
sbag7
(g8
g9
NtRp2559
(dp2560
g12
g18
sg14
S'Bradley Hand ITC'
p2561
sg16
I400
sg17
g18
sg19
g18
sg20
S'c:\\windows\\fonts\\bradhitc.ttf'
p2562
sg22
g23
sbag7
(g8
g9
NtRp2563
(dp2564
g12
g18
sg14
S'Century'
p2565
sg16
I400
sg17
g18
sg19
g18
sg20
S'C:\\Windows\\Fonts\\CENTURY.TTF'
p2566
sg22
g23
sbag7
(g8
g9
NtRp2567
(dp2568
g12
g18
sg14
S'Britannic Bold'
p2569
sg16
I700
sg17
g18
sg19
g18
sg20
S'C:\\Windows\\Fonts\\BRITANIC.TTF'
p2570
sg22
g23
sbag7
(g8
g9
NtRp2571
(dp2572
g12
g18
sg14
S'Old English Text MT'
p2573
sg16
I400
sg17
g18
sg19
g18
sg20
S'C:\\Windows\\Fonts\\OLDENGL.TTF'
p2574
sg22
g23
sbag7
(g8
g9
NtRp2575
(dp2576
g12
g18
sg14
S'Raavi'
p2577
sg16
I400
sg17
g18
sg19
g18
sg20
S'C:\\Windows\\Fonts\\raavi.ttf'
p2578
sg22
g23
sbag7
(g8
g9
NtRp2579
(dp2580
g12
g18
sg14
S'Vladimir Script'
p2581
sg16
I400
sg17
g18
sg19
g18
sg20
S'c:\\windows\\fonts\\vladimir.ttf'
p2582
sg22
g23
sbag7
(g8
g9
NtRp2583
(dp2584
g12
g18
sg14
S'Arial'
p2585
sg16
I700
sg17
g248
sg19
g18
sg20
S'C:\\Windows\\Fonts\\ARIALNB.TTF'
p2586
sg22
g23
sbag7
(g8
g9
NtRp2587
(dp2588
g12
g18
sg14
S'Eras Bold ITC'
p2589
sg16
I700
sg17
g18
sg19
g18
sg20
S'c:\\windows\\fonts\\erasbd.ttf'
p2590
sg22
g23
sbag7
(g8
g9
NtRp2591
(dp2592
g12
g18
sg14
S'Bookshelf Symbol 7'
p2593
sg16
I400
sg17
g18
sg19
g18
sg20
S'c:\\windows\\fonts\\bssym7.ttf'
p2594
sg22
g23
sbag7
(g8
g9
NtRp2595
(dp2596
g12
g18
sg14
S'Plantagenet Cherokee'
p2597
sg16
I400
sg17
g18
sg19
g18
sg20
S'C:\\Windows\\Fonts\\plantc.ttf'
p2598
sg22
g23
sbag7
(g8
g9
NtRp2599
(dp2600
g12
g18
sg14
S'Centaur'
p2601
sg16
I400
sg17
g18
sg19
g18
sg20
S'C:\\Windows\\Fonts\\CENTAUR.TTF'
p2602
sg22
g23
sbag7
(g8
g9
NtRp2603
(dp2604
g12
g18
sg14
S'Iskoola Pota'
p2605
sg16
I700
sg17
g18
sg19
g18
sg20
S'C:\\Windows\\Fonts\\iskpotab.ttf'
p2606
sg22
g23
sbag7
(g8
g9
NtRp2607
(dp2608
g12
g18
sg14
S'Times New Roman'
p2609
sg16
I700
sg17
g18
sg19
g18
sg20
S'C:\\Windows\\Fonts\\timesbd.ttf'
p2610
sg22
g23
sbag7
(g8
g9
NtRp2611
(dp2612
g12
g18
sg14
S'Candara'
p2613
sg16
I400
sg17
g18
sg19
g18
sg20
S'C:\\Windows\\Fonts\\Candara.ttf'
p2614
sg22
g23
sbag7
(g8
g9
NtRp2615
(dp2616
g12
g70
sg14
S'Lucida Handwriting'
p2617
sg16
I400
sg17
g18
sg19
g18
sg20
S'c:\\windows\\fonts\\lhandw.ttf'
p2618
sg22
g23
sbag7
(g8
g9
NtRp2619
(dp2620
g12
g18
sg14
S'Pristina'
p2621
sg16
I400
sg17
g18
sg19
g18
sg20
S'C:\\Windows\\Fonts\\PRISTINA.TTF'
p2622
sg22
g23
sbag7
(g8
g9
NtRp2623
(dp2624
g12
g18
sg14
S'Rockwell Extra Bold'
p2625
sg16
I700
sg17
g18
sg19
g18
sg20
S'c:\\windows\\fonts\\rockeb.ttf'
p2626
sg22
g23
sbag7
(g8
g9
NtRp2627
(dp2628
g12
g18
sg14
S'Rockwell'
p2629
sg16
I700
sg17
g18
sg19
g18
sg20
S'c:\\windows\\fonts\\rockb.ttf'
p2630
sg22
g23
sbag7
(g8
g9
NtRp2631
(dp2632
g12
g70
sg14
S'Ubuntu'
p2633
sg16
I500
sg17
g18
sg19
g18
sg20
S'c:\\windows\\fonts\\ubuntu-mi.ttf'
p2634
sg22
g23
sbag7
(g8
g9
NtRp2635
(dp2636
g12
g18
sg14
S'Playbill'
p2637
sg16
I400
sg17
g18
sg19
g18
sg20
S'c:\\windows\\fonts\\playbill.ttf'
p2638
sg22
g23
sbag7
(g8
g9
NtRp2639
(dp2640
g12
g18
sg14
S'Lucida Sans Typewriter'
p2641
sg16
I700
sg17
g18
sg19
g18
sg20
S'c:\\windows\\fonts\\ltypeb.ttf'
p2642
sg22
g23
sbag7
(g8
g9
NtRp2643
(dp2644
g12
g70
sg14
S'Century Gothic'
p2645
sg16
I700
sg17
g18
sg19
g18
sg20
S'C:\\Windows\\Fonts\\GOTHICBI.TTF'
p2646
sg22
g23
sbag7
(g8
g9
NtRp2647
(dp2648
g12
g18
sg14
S'Bodoni MT'
p2649
sg16
I400
sg17
g18
sg19
g18
sg20
S'c:\\windows\\fonts\\bod_r.ttf'
p2650
sg22
g23
sbag7
(g8
g9
NtRp2651
(dp2652
g12
g18
sg14
S'Bodoni MT'
p2653
sg16
I400
sg17
g18
sg19
g18
sg20
S'c:\\windows\\fonts\\bod_pstc.ttf'
p2654
sg22
g23
sbag7
(g8
g9
NtRp2655
(dp2656
g12
g18
sg14
S'Ubuntu Mono'
p2657
sg16
I400
sg17
g18
sg19
g18
sg20
S'C:\\Windows\\Fonts\\UbuntuMono-R.ttf'
p2658
sg22
g23
sbag7
(g8
g9
NtRp2659
(dp2660
g12
g18
sg14
S'Freestyle Script'
p2661
sg16
I400
sg17
g18
sg19
g18
sg20
S'C:\\Windows\\Fonts\\FREESCPT.TTF'
p2662
sg22
g23
sbag7
(g8
g9
NtRp2663
(dp2664
g12
g18
sg14
S'Latha'
p2665
sg16
I700
sg17
g18
sg19
g18
sg20
S'C:\\Windows\\Fonts\\lathab.ttf'
p2666
sg22
g23
sbag7
(g8
g9
NtRp2667
(dp2668
g12
g18
sg14
S'Gabriola'
p2669
sg16
I400
sg17
g18
sg19
g18
sg20
S'c:\\windows\\fonts\\gabriola.ttf'
p2670
sg22
g23
sbag7
(g8
g9
NtRp2671
(dp2672
g12
g70
sg14
S'Perpetua'
p2673
sg16
I700
sg17
g18
sg19
g18
sg20
S'c:\\windows\\fonts\\perbi___.ttf'
p2674
sg22
g23
sbag7
(g8
g9
NtRp2675
(dp2676
g12
g18
sg14
S'Blackadder ITC'
p2677
sg16
I900
sg17
g18
sg19
g18
sg20
S'C:\\Windows\\Fonts\\ITCBLKAD.TTF'
p2678
sg22
g23
sbag7
(g8
g9
NtRp2679
(dp2680
g12
g18
sg14
S'Perpetua Titling MT'
p2681
sg16
I700
sg17
g18
sg19
g18
sg20
S'C:\\Windows\\Fonts\\PERTIBD.TTF'
p2682
sg22
g23
sbag7
(g8
g9
NtRp2683
(dp2684
g12
g18
sg14
S'Ravie'
p2685
sg16
I400
sg17
g18
sg19
g18
sg20
S'c:\\windows\\fonts\\ravie.ttf'
p2686
sg22
g23
sbag7
(g8
g9
NtRp2687
(dp2688
g12
g18
sg14
S'Eras Demi ITC'
p2689
sg16
I600
sg17
g18
sg19
g18
sg20
S'c:\\windows\\fonts\\erasdemi.ttf'
p2690
sg22
g23
sbag7
(g8
g9
NtRp2691
(dp2692
g12
g70
sg14
S'Lucida Bright'
p2693
sg16
I700
sg17
g18
sg19
g18
sg20
S'C:\\Windows\\Fonts\\LBRITEDI.TTF'
p2694
sg22
g23
sbag7
(g8
g9
NtRp2695
(dp2696
g12
g18
sg14
S'Script MT Bold'
p2697
sg16
I700
sg17
g18
sg19
g18
sg20
S'c:\\windows\\fonts\\scriptbl.ttf'
p2698
sg22
g23
sbag7
(g8
g9
NtRp2699
(dp2700
g12
g70
sg14
S'Century Gothic'
p2701
sg16
I400
sg17
g18
sg19
g18
sg20
S'C:\\Windows\\Fonts\\GOTHICI.TTF'
p2702
sg22
g23
sbag7
(g8
g9
NtRp2703
(dp2704
g12
g18
sg14
S'Maiandra GD'
p2705
sg16
I400
sg17
g18
sg19
g18
sg20
S'C:\\Windows\\Fonts\\MAIAN.TTF'
p2706
sg22
g23
sbag7
(g8
g9
NtRp2707
(dp2708
g12
g70
sg14
S'Calisto MT'
p2709
sg16
I700
sg17
g18
sg19
g18
sg20
S'c:\\windows\\fonts\\calistbi.ttf'
p2710
sg22
g23
sbag7
(g8
g9
NtRp2711
(dp2712
g12
g18
sg14
S'Tw Cen MT Condensed'
p2713
sg16
I700
sg17
g248
sg19
g18
sg20
S'C:\\Windows\\Fonts\\TCCB____.TTF'
p2714
sg22
g23
sbag7
(g8
g9
NtRp2715
(dp2716
g12
g70
sg14
S'Harlow Solid Italic'
p2717
sg16
I400
sg17
g18
sg19
g18
sg20
S'C:\\Windows\\Fonts\\HARLOWSI.TTF'
p2718
sg22
g23
sbag7
(g8
g9
NtRp2719
(dp2720
g12
g18
sg14
S'Khmer UI'
p2721
sg16
I400
sg17
g18
sg19
g18
sg20
S'C:\\Windows\\Fonts\\KhmerUI.ttf'
p2722
sg22
g23
sbag7
(g8
g9
NtRp2723
(dp2724
g12
g70
sg14
S'Bookman Old Style'
p2725
sg16
I700
sg17
g18
sg19
g18
sg20
S'C:\\Windows\\Fonts\\BOOKOSBI.TTF'
p2726
sg22
g23
sbag7
(g8
g9
NtRp2727
(dp2728
g12
g18
sg14
S'Broadway'
p2729
sg16
I400
sg17
g18
sg19
g18
sg20
S'c:\\windows\\fonts\\broadw.ttf'
p2730
sg22
g23
sbag7
(g8
g9
NtRp2731
(dp2732
g12
g18
sg14
S'Berlin Sans FB'
p2733
sg16
I700
sg17
g18
sg19
g18
sg20
S'c:\\windows\\fonts\\brlnsb.ttf'
p2734
sg22
g23
sbag7
(g8
g9
NtRp2735
(dp2736
g12
g18
sg14
S'Bell MT'
p2737
sg16
I700
sg17
g18
sg19
g18
sg20
S'c:\\windows\\fonts\\bellb.ttf'
p2738
sg22
g23
sbag7
(g8
g9
NtRp2739
(dp2740
g12
g70
sg14
S'Lucida Calligraphy'
p2741
sg16
I400
sg17
g18
sg19
g18
sg20
S'C:\\Windows\\Fonts\\LCALLIG.TTF'
p2742
sg22
g23
sbag7
(g8
g9
NtRp2743
(dp2744
g12
g70
sg14
S'Bodoni MT'
p2745
sg16
I400
sg17
g248
sg19
g18
sg20
S'C:\\Windows\\Fonts\\BOD_CI.TTF'
p2746
sg22
g23
sbag7
(g8
g9
NtRp2747
(dp2748
g12
g18
sg14
S'Bodoni MT'
p2749
sg16
I400
sg17
g18
sg19
g18
sg20
S'C:\\Windows\\Fonts\\BOD_PSTC.TTF'
p2750
sg22
g23
sbag7
(g8
g9
NtRp2751
(dp2752
g12
g18
sg14
S'Poor Richard'
p2753
sg16
I400
sg17
g18
sg19
g18
sg20
S'c:\\windows\\fonts\\poorich.ttf'
p2754
sg22
g23
sbag7
(g8
g9
NtRp2755
(dp2756
g12
g70
sg14
S'Bodoni MT'
p2757
sg16
I700
sg17
g248
sg19
g18
sg20
S'c:\\windows\\fonts\\bod_cbi.ttf'
p2758
sg22
g23
sbag7
(g8
g9
NtRp2759
(dp2760
g12
g18
sg14
S'Candara'
p2761
sg16
I700
sg17
g18
sg19
g18
sg20
S'C:\\Windows\\Fonts\\Candarab.ttf'
p2762
sg22
g23
sbag7
(g8
g9
NtRp2763
(dp2764
g12
g18
sg14
S'Stencil'
p2765
sg16
I400
sg17
g18
sg19
g18
sg20
S'c:\\windows\\fonts\\stencil.ttf'
p2766
sg22
g23
sbasS'defaultFamily'
p2767
(dp2768
S'afm'
p2769
S'Helvetica'
p2770
sS'ttf'
p2771
S'Bitstream Vera Sans'
p2772
ssS'ttffiles'
p2773
(lp2774
S'D:\\DATUMARO\\trabajo\\programas_repositorio\\integrador\\tags\\current\\standalone exes\\mpl-data\\fonts\\ttf\\VeraMoBI.ttf'
p2775
aS'D:\\DATUMARO\\trabajo\\programas_repositorio\\integrador\\tags\\current\\standalone exes\\mpl-data\\fonts\\ttf\\STIXNonUni.ttf'
p2776
aS'D:\\DATUMARO\\trabajo\\programas_repositorio\\integrador\\tags\\current\\standalone exes\\mpl-data\\fonts\\ttf\\cmss10.ttf'
p2777
aS'D:\\DATUMARO\\trabajo\\programas_repositorio\\integrador\\tags\\current\\standalone exes\\mpl-data\\fonts\\ttf\\STIXGeneralBol.ttf'
p2778
aS'D:\\DATUMARO\\trabajo\\programas_repositorio\\integrador\\tags\\current\\standalone exes\\mpl-data\\fonts\\ttf\\VeraMoBd.ttf'
p2779
aS'D:\\DATUMARO\\trabajo\\programas_repositorio\\integrador\\tags\\current\\standalone exes\\mpl-data\\fonts\\ttf\\cmr10.ttf'
p2780
aS'D:\\DATUMARO\\trabajo\\programas_repositorio\\integrador\\tags\\current\\standalone exes\\mpl-data\\fonts\\ttf\\STIXSizTwoSymBol.ttf'
p2781
aS'D:\\DATUMARO\\trabajo\\programas_repositorio\\integrador\\tags\\current\\standalone exes\\mpl-data\\fonts\\ttf\\STIXNonUniBol.ttf'
p2782
aS'D:\\DATUMARO\\trabajo\\programas_repositorio\\integrador\\tags\\current\\standalone exes\\mpl-data\\fonts\\ttf\\cmb10.ttf'
p2783
aS'D:\\DATUMARO\\trabajo\\programas_repositorio\\integrador\\tags\\current\\standalone exes\\mpl-data\\fonts\\ttf\\STIXSizFiveSymReg.ttf'
p2784
aS'D:\\DATUMARO\\trabajo\\programas_repositorio\\integrador\\tags\\current\\standalone exes\\mpl-data\\fonts\\ttf\\cmsy10.ttf'
p2785
aS'D:\\DATUMARO\\trabajo\\programas_repositorio\\integrador\\tags\\current\\standalone exes\\mpl-data\\fonts\\ttf\\STIXSizThreeSymReg.ttf'
p2786
aS'D:\\DATUMARO\\trabajo\\programas_repositorio\\integrador\\tags\\current\\standalone exes\\mpl-data\\fonts\\ttf\\STIXGeneralItalic.ttf'
p2787
aS'D:\\DATUMARO\\trabajo\\programas_repositorio\\integrador\\tags\\current\\standalone exes\\mpl-data\\fonts\\ttf\\VeraBd.ttf'
p2788
aS'D:\\DATUMARO\\trabajo\\programas_repositorio\\integrador\\tags\\current\\standalone exes\\mpl-data\\fonts\\ttf\\STIXSizThreeSymBol.ttf'
p2789
aS'D:\\DATUMARO\\trabajo\\programas_repositorio\\integrador\\tags\\current\\standalone exes\\mpl-data\\fonts\\ttf\\VeraSe.ttf'
p2790
aS'D:\\DATUMARO\\trabajo\\programas_repositorio\\integrador\\tags\\current\\standalone exes\\mpl-data\\fonts\\ttf\\VeraIt.ttf'
p2791
aS'D:\\DATUMARO\\trabajo\\programas_repositorio\\integrador\\tags\\current\\standalone exes\\mpl-data\\fonts\\ttf\\VeraSeBd.ttf'
p2792
aS'D:\\DATUMARO\\trabajo\\programas_repositorio\\integrador\\tags\\current\\standalone exes\\mpl-data\\fonts\\ttf\\VeraMoIt.ttf'
p2793
aS'D:\\DATUMARO\\trabajo\\programas_repositorio\\integrador\\tags\\current\\standalone exes\\mpl-data\\fonts\\ttf\\VeraBI.ttf'
p2794
aS'D:\\DATUMARO\\trabajo\\programas_repositorio\\integrador\\tags\\current\\standalone exes\\mpl-data\\fonts\\ttf\\STIXNonUniBolIta.ttf'
p2795
aS'D:\\DATUMARO\\trabajo\\programas_repositorio\\integrador\\tags\\current\\standalone exes\\mpl-data\\fonts\\ttf\\cmmi10.ttf'
p2796
aS'D:\\DATUMARO\\trabajo\\programas_repositorio\\integrador\\tags\\current\\standalone exes\\mpl-data\\fonts\\ttf\\STIXGeneralBolIta.ttf'
p2797
aS'D:\\DATUMARO\\trabajo\\programas_repositorio\\integrador\\tags\\current\\standalone exes\\mpl-data\\fonts\\ttf\\STIXSizFourSymBol.ttf'
p2798
aS'D:\\DATUMARO\\trabajo\\programas_repositorio\\integrador\\tags\\current\\standalone exes\\mpl-data\\fonts\\ttf\\STIXNonUniIta.ttf'
p2799
aS'D:\\DATUMARO\\trabajo\\programas_repositorio\\integrador\\tags\\current\\standalone exes\\mpl-data\\fonts\\ttf\\STIXGeneral.ttf'
p2800
aS'D:\\DATUMARO\\trabajo\\programas_repositorio\\integrador\\tags\\current\\standalone exes\\mpl-data\\fonts\\ttf\\STIXSizFourSymReg.ttf'
p2801
aS'D:\\DATUMARO\\trabajo\\programas_repositorio\\integrador\\tags\\current\\standalone exes\\mpl-data\\fonts\\ttf\\STIXSizTwoSymReg.ttf'
p2802
aS'D:\\DATUMARO\\trabajo\\programas_repositorio\\integrador\\tags\\current\\standalone exes\\mpl-data\\fonts\\ttf\\cmex10.ttf'
p2803
aS'D:\\DATUMARO\\trabajo\\programas_repositorio\\integrador\\tags\\current\\standalone exes\\mpl-data\\fonts\\ttf\\STIXSizOneSymReg.ttf'
p2804
aS'D:\\DATUMARO\\trabajo\\programas_repositorio\\integrador\\tags\\current\\standalone exes\\mpl-data\\fonts\\ttf\\Vera.ttf'
p2805
aS'D:\\DATUMARO\\trabajo\\programas_repositorio\\integrador\\tags\\current\\standalone exes\\mpl-data\\fonts\\ttf\\STIXSizOneSymBol.ttf'
p2806
aS'D:\\DATUMARO\\trabajo\\programas_repositorio\\integrador\\tags\\current\\standalone exes\\mpl-data\\fonts\\ttf\\cmtt10.ttf'
p2807
aS'D:\\DATUMARO\\trabajo\\programas_repositorio\\integrador\\tags\\current\\standalone exes\\mpl-data\\fonts\\ttf\\VeraMono.ttf'
p2808
aVC:\u005cWindows\u005cFonts\u005ccour.ttf
p2809
aVc:\u005cwindows\u005cfonts\u005cftltlt.ttf
p2810
aVc:\u005cwindows\u005cfonts\u005cbrowai.ttf
p2811
aVC:\u005cWindows\u005cFonts\u005cSTENCIL.TTF
p2812
aVc:\u005cwindows\u005cfonts\u005ccambriab.ttf
p2813
aVC:\u005cWindows\u005cFonts\u005cverdanaz.ttf
p2814
aVC:\u005cWindows\u005cFonts\u005cpalabi.ttf
p2815
aVc:\u005cwindows\u005cfonts\u005cupcji.ttf
p2816
aVC:\u005cWindows\u005cFonts\u005ctaileb.ttf
p2817
aVc:\u005cwindows\u005cfonts\u005ctrebucbd.ttf
p2818
aVC:\u005cWindows\u005cFonts\u005ctahomabd.ttf
p2819
aVc:\u005cwindows\u005cfonts\u005cbelli.ttf
p2820
aVc:\u005cwindows\u005cfonts\u005cbod_blai.ttf
p2821
aVC:\u005cWindows\u005cFonts\u005cCOPRGTB.TTF
p2822
aVC:\u005cWindows\u005cFonts\u005cELEPHNTI.TTF
p2823
aVc:\u005cwindows\u005cfonts\u005cbrowau.ttf
p2824
aVc:\u005cwindows\u005cfonts\u005csimkai.ttf
p2825
aVc:\u005cwindows\u005cfonts\u005ctaileb.ttf
p2826
aVC:\u005cWindows\u005cFonts\u005cUbuntu-R.ttf
p2827
aVc:\u005cwindows\u005cfonts\u005cfradm.ttf
p2828
aVc:\u005cwindows\u005cfonts\u005ctrebucbi.ttf
p2829
aVc:\u005cwindows\u005cfonts\u005cmtcorsva.ttf
p2830
aVc:\u005cwindows\u005cfonts\u005csegoeuiz.ttf
p2831
aVc:\u005cwindows\u005cfonts\u005cbod_cr.ttf
p2832
aVc:\u005cwindows\u005cfonts\u005cbod_bi.ttf
p2833
aVc:\u005cwindows\u005cfonts\u005cgili____.ttf
p2834
aVC:\u005cWindows\u005cFonts\u005cKUNSTLER.TTF
p2835
aVc:\u005cwindows\u005cfonts\u005cbrowauz.ttf
p2836
aVC:\u005cWindows\u005cFonts\u005cmalgunbd.ttf
p2837
aVc:\u005cwindows\u005cfonts\u005cimprisha.ttf
p2838
aVC:\u005cWindows\u005cFonts\u005cdokchamp.ttf
p2839
aVC:\u005cWindows\u005cFonts\u005cCURLZ___.TTF
p2840
aVc:\u005cwindows\u005cfonts\u005cariali.ttf
p2841
aVc:\u005cwindows\u005cfonts\u005ctcm_____.ttf
p2842
aVc:\u005cwindows\u005cfonts\u005ckhmeruib.ttf
p2843
aVc:\u005cwindows\u005cfonts\u005ctccb____.ttf
p2844
aVc:\u005cwindows\u005cfonts\u005csimpo.ttf
p2845
aVc:\u005cwindows\u005cfonts\u005carabtype.ttf
p2846
aVC:\u005cWindows\u005cFonts\u005ckartikab.ttf
p2847
aVc:\u005cwindows\u005cfonts\u005ckhmerui.ttf
p2848
aVc:\u005cwindows\u005cfonts\u005cseguisb.ttf
p2849
aVC:\u005cWindows\u005cFonts\u005ckalinga.ttf
p2850
aVC:\u005cWindows\u005cFonts\u005ckokilab.ttf
p2851
aVC:\u005cWindows\u005cFonts\u005cFRAHV.TTF
p2852
aVC:\u005cWindows\u005cFonts\u005ccalibril.ttf
p2853
aVC:\u005cWindows\u005cFonts\u005ccordiab.ttf
p2854
aVC:\u005cWindows\u005cFonts\u005cgautamib.ttf
p2855
aVC:\u005cWindows\u005cFonts\u005ceuphemia.ttf
p2856
aVC:\u005cWindows\u005cFonts\u005cgeorgiai.ttf
p2857
aVC:\u005cWindows\u005cFonts\u005cleelawdb.ttf
p2858
aVc:\u005cwindows\u005cfonts\u005cpristina.ttf
p2859
aVC:\u005cWindows\u005cFonts\u005cONYX.TTF
p2860
aVC:\u005cWindows\u005cFonts\u005cBASKVILL.TTF
p2861
aVC:\u005cWindows\u005cFonts\u005cLTYPEO.TTF
p2862
aVC:\u005cWindows\u005cFonts\u005chimalaya.ttf
p2863
aVc:\u005cwindows\u005cfonts\u005ctahomabd.ttf
p2864
aVC:\u005cWindows\u005cFonts\u005ccordia.ttf
p2865
aVc:\u005cwindows\u005cfonts\u005ckokilab.ttf
p2866
aVc:\u005cwindows\u005cfonts\u005ccalifi.ttf
p2867
aVc:\u005cwindows\u005cfonts\u005cgautamib.ttf
p2868
aVc:\u005cwindows\u005cfonts\u005csegoeuil.ttf
p2869
aVc:\u005cwindows\u005cfonts\u005cconsola.ttf
p2870
aVc:\u005cwindows\u005cfonts\u005csamarn.ttf
p2871
aVC:\u005cWindows\u005cFonts\u005cangsai.ttf
p2872
aVC:\u005cWindows\u005cFonts\u005cupcfb.ttf
p2873
aVc:\u005cwindows\u005cfonts\u005carialbd.ttf
p2874
aVC:\u005cWindows\u005cFonts\u005cmajalla.ttf
p2875
aVc:\u005cwindows\u005cfonts\u005cmsyh.ttf
p2876
aVC:\u005cWindows\u005cFonts\u005ctunga.ttf
p2877
aVc:\u005cwindows\u005cfonts\u005cverdanaz.ttf
p2878
aVc:\u005cwindows\u005cfonts\u005clfaxd.ttf
p2879
aVC:\u005cWindows\u005cFonts\u005ccambriaz.ttf
p2880
aVC:\u005cWindows\u005cFonts\u005cconstanz.ttf
p2881
aVC:\u005cWindows\u005cFonts\u005cupcibi.ttf
p2882
aVc:\u005cwindows\u005cfonts\u005cmaian.ttf
p2883
aVC:\u005cWindows\u005cFonts\u005cnrkis.ttf
p2884
aVc:\u005cwindows\u005cfonts\u005cmsjhbd.ttf
p2885
aVC:\u005cWindows\u005cFonts\u005csegoeuii.ttf
p2886
aVC:\u005cWindows\u005cFonts\u005cmvboli.ttf
p2887
aVc:\u005cwindows\u005cfonts\u005csegoeui.ttf
p2888
aVC:\u005cWindows\u005cFonts\u005clvnmbd.ttf
p2889
aVC:\u005cWindows\u005cFonts\u005cLTYPEB.TTF
p2890
aVC:\u005cWindows\u005cFonts\u005cCALISTB.TTF
p2891
aVc:\u005cwindows\u005cfonts\u005cantquabi.ttf
p2892
aVC:\u005cWindows\u005cFonts\u005cTCMI____.TTF
p2893
aVC:\u005cWindows\u005cFonts\u005cHTOWERTI.TTF
p2894
aVC:\u005cWindows\u005cFonts\u005cLSANS.TTF
p2895
aVC:\u005cWindows\u005cFonts\u005cITCKRIST.TTF
p2896
aVC:\u005cWindows\u005cFonts\u005cmarlett.ttf
p2897
aVc:\u005cwindows\u005cfonts\u005cbrowab.ttf
p2898
aVc:\u005cwindows\u005cfonts\u005ccorbelb.ttf
p2899
aVc:\u005cwindows\u005cfonts\u005ccalifb.ttf
p2900
aVc:\u005cwindows\u005cfonts\u005csimpbdo.ttf
p2901
aVC:\u005cWindows\u005cFonts\u005cFRABK.TTF
p2902
aVC:\u005cWindows\u005cFonts\u005cKhmerUIb.ttf
p2903
aVc:\u005cwindows\u005cfonts\u005cinfroman.ttf
p2904
aVC:\u005cWindows\u005cFonts\u005cupcll.ttf
p2905
aVc:\u005cwindows\u005cfonts\u005cagencyb.ttf
p2906
aVC:\u005cWindows\u005cFonts\u005cupcfbi.ttf
p2907
aVC:\u005cWindows\u005cFonts\u005cARLRDBD.TTF
p2908
aVc:\u005cwindows\u005cfonts\u005ccoopbl.ttf
p2909
aVc:\u005cwindows\u005cfonts\u005cltypebo.ttf
p2910
aVC:\u005cWindows\u005cFonts\u005cvrindab.ttf
p2911
aVC:\u005cWindows\u005cFonts\u005ckalingab.ttf
p2912
aVC:\u005cWindows\u005cFonts\u005ccalibrii.ttf
p2913
aVc:\u005cwindows\u005cfonts\u005cubuntu-li.ttf
p2914
aVC:\u005cWindows\u005cFonts\u005cframdit.ttf
p2915
aVC:\u005cWindows\u005cFonts\u005csegoeui.ttf
p2916
aVc:\u005cwindows\u005cfonts\u005cutsaahi.ttf
p2917
aVc:\u005cwindows\u005cfonts\u005cmod20.ttf
p2918
aVc:\u005cwindows\u005cfonts\u005cschlbkbi.ttf
p2919
aVC:\u005cWindows\u005cFonts\u005ckaiu.ttf
p2920
aVc:\u005cwindows\u005cfonts\u005cocraext.ttf
p2921
aVc:\u005cwindows\u005cfonts\u005cangsauz.ttf
p2922
aVc:\u005cwindows\u005cfonts\u005cvrindab.ttf
p2923
aVc:\u005cwindows\u005cfonts\u005cshonar.ttf
p2924
aVC:\u005cWindows\u005cFonts\u005ctrebucbi.ttf
p2925
aVC:\u005cWindows\u005cFonts\u005cGOUDOSB.TTF
p2926
aVc:\u005cwindows\u005cfonts\u005clsansi.ttf
p2927
aVC:\u005cWindows\u005cFonts\u005cupcki.ttf
p2928
aVC:\u005cWindows\u005cFonts\u005cutsaahb.ttf
p2929
aVc:\u005cwindows\u005cfonts\u005cerasmd.ttf
p2930
aVc:\u005cwindows\u005cfonts\u005cverdanai.ttf
p2931
aVC:\u005cWindows\u005cFonts\u005cJOKERMAN.TTF
p2932
aVC:\u005cWindows\u005cFonts\u005cconstanb.ttf
p2933
aVc:\u005cwindows\u005cfonts\u005cfradmit.ttf
p2934
aVC:\u005cWindows\u005cFonts\u005cWINGDNG2.TTF
p2935
aVc:\u005cwindows\u005cfonts\u005cutsaah.ttf
p2936
aVc:\u005cwindows\u005cfonts\u005cmsyhbd.ttf
p2937
aVc:\u005cwindows\u005cfonts\u005csymbol.ttf
p2938
aVC:\u005cWindows\u005cFonts\u005cROCKI.TTF
p2939
aVC:\u005cWindows\u005cFonts\u005cBOD_BLAI.TTF
p2940
aVc:\u005cwindows\u005cfonts\u005ccalisti.ttf
p2941
aVc:\u005cwindows\u005cfonts\u005csylfaen.ttf
p2942
aVc:\u005cwindows\u005cfonts\u005croccb___.ttf
p2943
aVC:\u005cWindows\u005cFonts\u005cLSANSD.TTF
p2944
aVC:\u005cWindows\u005cFonts\u005ccalibriz.ttf
p2945
aVc:\u005cwindows\u005cfonts\u005cahronbd.ttf
p2946
aVC:\u005cWindows\u005cFonts\u005cUbuntu-RI.ttf
p2947
aVC:\u005cWindows\u005cFonts\u005cmsjhbd.ttf
p2948
aVc:\u005cwindows\u005cfonts\u005cutsaahb.ttf
p2949
aVC:\u005cWindows\u005cFonts\u005cupcjbi.ttf
p2950
aVC:\u005cWindows\u005cFonts\u005cERASMD.TTF
p2951
aVc:\u005cwindows\u005cfonts\u005cschlbki.ttf
p2952
aVc:\u005cwindows\u005cfonts\u005cupcel.ttf
p2953
aVC:\u005cWindows\u005cFonts\u005cBKANT.TTF
p2954
aVC:\u005cWindows\u005cFonts\u005cangsab.ttf
p2955
aVc:\u005cwindows\u005cfonts\u005cmoolbor.ttf
p2956
aVC:\u005cWindows\u005cFonts\u005cARIALN.TTF
p2957
aVc:\u005cwindows\u005cfonts\u005cupckl.ttf
p2958
aVc:\u005cwindows\u005cfonts\u005cangsaui.ttf
p2959
aVC:\u005cWindows\u005cFonts\u005cFRADMCN.TTF
p2960
aVC:\u005cWindows\u005cFonts\u005cANTQUABI.TTF
p2961
aVC:\u005cWindows\u005cFonts\u005ctaile.ttf
p2962
aVC:\u005cWindows\u005cFonts\u005cSCHLBKBI.TTF
p2963
aVC:\u005cWindows\u005cFonts\u005cBERNHC.TTF
p2964
aVC:\u005cWindows\u005cFonts\u005cupcebi.ttf
p2965
aVc:\u005cwindows\u005cfonts\u005cbookosi.ttf
p2966
aVC:\u005cWindows\u005cFonts\u005cLFAXD.TTF
p2967
aVc:\u005cwindows\u005cfonts\u005cglecb.ttf
p2968
aVC:\u005cWindows\u005cFonts\u005cCHILLER.TTF
p2969
aVC:\u005cWindows\u005cFonts\u005cGILLUBCD.TTF
p2970
aVc:\u005cwindows\u005cfonts\u005cupcfi.ttf
p2971
aVC:\u005cWindows\u005cFonts\u005cframd.ttf
p2972
aVC:\u005cWindows\u005cFonts\u005cLSANSI.TTF
p2973
aVC:\u005cWindows\u005cFonts\u005cZWAdobeF.TTF
p2974
aVc:\u005cwindows\u005cfonts\u005ctaile.ttf
p2975
aVC:\u005cWindows\u005cFonts\u005cupckbi.ttf
p2976
aVC:\u005cWindows\u005cFonts\u005cUbuntuMono-B.ttf
p2977
aVc:\u005cwindows\u005cfonts\u005ccalibri.ttf
p2978
aVC:\u005cWindows\u005cFonts\u005cFELIXTI.TTF
p2979
aVC:\u005cWindows\u005cFonts\u005cbrowab.ttf
p2980
aVC:\u005cWindows\u005cFonts\u005cVLADIMIR.TTF
p2981
aVC:\u005cWindows\u005cFonts\u005cimpact.ttf
p2982
aVc:\u005cwindows\u005cfonts\u005cubuntu-m.ttf
p2983
aVc:\u005cwindows\u005cfonts\u005cupcil.ttf
p2984
aVC:\u005cWindows\u005cFonts\u005cBROADW.TTF
p2985
aVC:\u005cWindows\u005cFonts\u005cCOLONNA.TTF
p2986
aVC:\u005cWindows\u005cFonts\u005cGILB____.TTF
p2987
aVC:\u005cWindows\u005cFonts\u005cwingding.ttf
p2988
aVC:\u005cWindows\u005cFonts\u005cCALISTI.TTF
p2989
aVc:\u005cwindows\u005cfonts\u005clatha.ttf
p2990
aVc:\u005cwindows\u005cfonts\u005ccambriai.ttf
p2991
aVC:\u005cWindows\u005cFonts\u005cmangalb.ttf
p2992
aVC:\u005cWindows\u005cFonts\u005ckartika.ttf
p2993
aVc:\u005cwindows\u005cfonts\u005cvani.ttf
p2994
aVc:\u005cwindows\u005cfonts\u005carlrdbd.ttf
p2995
aVc:\u005cwindows\u005cfonts\u005cupcdl.ttf
p2996
aVC:\u005cWindows\u005cFonts\u005cCALISTBI.TTF
p2997
aVc:\u005cwindows\u005cfonts\u005cbernhc.ttf
p2998
aVC:\u005cWindows\u005cFonts\u005cMTCORSVA.TTF
p2999
aVC:\u005cWindows\u005cFonts\u005cl_10646.ttf
p3000
aVc:\u005cwindows\u005cfonts\u005cupckbi.ttf
p3001
aVc:\u005cwindows\u005cfonts\u005ccastelar.ttf
p3002
aVc:\u005cwindows\u005cfonts\u005cmagnetob.ttf
p3003
aVc:\u005cwindows\u005cfonts\u005cubuntu-c.ttf
p3004
aVC:\u005cWindows\u005cFonts\u005cSCRIPTBL.TTF
p3005
aVC:\u005cWindows\u005cFonts\u005cBRLNSDB.TTF
p3006
aVc:\u005cwindows\u005cfonts\u005carialuni.ttf
p3007
aVc:\u005cwindows\u005cfonts\u005caparajbi.ttf
p3008
aVc:\u005cwindows\u005cfonts\u005cebrimabd.ttf
p3009
aVC:\u005cWindows\u005cFonts\u005csegoepr.ttf
p3010
aVC:\u005cWindows\u005cFonts\u005cmicross.ttf
p3011
aVc:\u005cwindows\u005cfonts\u005cgillubcd.ttf
p3012
aVC:\u005cWindows\u005cFonts\u005cWINGDNG3.TTF
p3013
aVC:\u005cWindows\u005cFonts\u005ckokilabi.ttf
p3014
aVC:\u005cWindows\u005cFonts\u005cGILBI___.TTF
p3015
aVC:\u005cWindows\u005cFonts\u005cPALSCRI.TTF
p3016
aVC:\u005cWindows\u005cFonts\u005csegoeprb.ttf
p3017
aVC:\u005cWindows\u005cFonts\u005cupcfl.ttf
p3018
aVc:\u005cwindows\u005cfonts\u005cperi____.ttf
p3019
aVc:\u005cwindows\u005cfonts\u005cmriamc.ttf
p3020
aVc:\u005cwindows\u005cfonts\u005cupcii.ttf
p3021
aVc:\u005cwindows\u005cfonts\u005ccoprgtl.ttf
p3022
aVc:\u005cwindows\u005cfonts\u005ctcmi____.ttf
p3023
aVC:\u005cWindows\u005cFonts\u005cverdanai.ttf
p3024
aVC:\u005cWindows\u005cFonts\u005ccordiaz.ttf
p3025
aVc:\u005cwindows\u005cfonts\u005csegoepr.ttf
p3026
aVc:\u005cwindows\u005cfonts\u005cmicross.ttf
p3027
aVc:\u005cwindows\u005cfonts\u005ctimes.ttf
p3028
aVc:\u005cwindows\u005cfonts\u005cwingdng2.ttf
p3029
aVc:\u005cwindows\u005cfonts\u005cconsolab.ttf
p3030
aVC:\u005cWindows\u005cFonts\u005cUbuntu-M.ttf
p3031
aVc:\u005cwindows\u005cfonts\u005cubuntu-r.ttf
p3032
aVc:\u005cwindows\u005cfonts\u005ckalingab.ttf
p3033
aVC:\u005cWindows\u005cFonts\u005cupcil.ttf
p3034
aVc:\u005cwindows\u005cfonts\u005cvijayab.ttf
p3035
aVc:\u005cwindows\u005cfonts\u005ccouri.ttf
p3036
aVC:\u005cWindows\u005cFonts\u005cshrutib.ttf
p3037
aVc:\u005cwindows\u005cfonts\u005ccordiauz.ttf
p3038
aVc:\u005cwindows\u005cfonts\u005cleelawad.ttf
p3039
aVc:\u005cwindows\u005cfonts\u005carial.ttf
p3040
aVc:\u005cwindows\u005cfonts\u005cbod_i.ttf
p3041
aVc:\u005cwindows\u005cfonts\u005cshonarb.ttf
p3042
aVC:\u005cWindows\u005cFonts\u005cconsolai.ttf
p3043
aVc:\u005cwindows\u005cfonts\u005cengr.ttf
p3044
aVC:\u005cWindows\u005cFonts\u005cLFAXDI.TTF
p3045
aVC:\u005cWindows\u005cFonts\u005cGOTHIC.TTF
p3046
aVC:\u005cWindows\u005cFonts\u005cBAUHS93.TTF
p3047
aVc:\u005cwindows\u005cfonts\u005cl_10646.ttf
p3048
aVC:\u005cWindows\u005cFonts\u005cmriamc.ttf
p3049
aVC:\u005cWindows\u005cFonts\u005cHATTEN.TTF
p3050
aVC:\u005cWindows\u005cFonts\u005cseguisb.ttf
p3051
aVc:\u005cwindows\u005cfonts\u005cantquai.ttf
p3052
aVc:\u005cwindows\u005cfonts\u005crefsan.ttf
p3053
aVc:\u005cwindows\u005cfonts\u005cbookosb.ttf
p3054
aVc:\u005cwindows\u005cfonts\u005cbrowaub.ttf
p3055
aVC:\u005cWindows\u005cFonts\u005cmoolbor.ttf
p3056
aVc:\u005cwindows\u005cfonts\u005cupcdbi.ttf
p3057
aVc:\u005cwindows\u005cfonts\u005cfelixti.ttf
p3058
aVc:\u005cwindows\u005cfonts\u005ccentaur.ttf
p3059
aVC:\u005cWindows\u005cFonts\u005ckokilai.ttf
p3060
aVC:\u005cWindows\u005cFonts\u005csegoesc.ttf
p3061
aVc:\u005cwindows\u005cfonts\u005cpalai.ttf
p3062
aVc:\u005cwindows\u005cfonts\u005cfrahvit.ttf
p3063
aVC:\u005cWindows\u005cFonts\u005cmalgun.ttf
p3064
aVC:\u005cWindows\u005cFonts\u005cBRLNSR.TTF
p3065
aVc:\u005cwindows\u005cfonts\u005cubuntumono-bi.ttf
p3066
aVC:\u005cWindows\u005cFonts\u005cUbuntuMono-BI.ttf
p3067
aVc:\u005cwindows\u005cfonts\u005ccordia.ttf
p3068
aVc:\u005cwindows\u005cfonts\u005cupcjb.ttf
p3069
aVc:\u005cwindows\u005cfonts\u005cdavidbd.ttf
p3070
aVC:\u005cWindows\u005cFonts\u005cconstani.ttf
p3071
aVC:\u005cWindows\u005cFonts\u005cPERI____.TTF
p3072
aVc:\u005cwindows\u005cfonts\u005cbod_b.ttf
p3073
aVc:\u005cwindows\u005cfonts\u005ckokilai.ttf
p3074
aVc:\u005cwindows\u005cfonts\u005cschlbkb.ttf
p3075
aVc:\u005cwindows\u005cfonts\u005cchiller.ttf
p3076
aVC:\u005cWindows\u005cFonts\u005cANTQUAB.TTF
p3077
aVc:\u005cwindows\u005cfonts\u005cconstan.ttf
p3078
aVC:\u005cWindows\u005cFonts\u005cARIALNI.TTF
p3079
aVc:\u005cwindows\u005cfonts\u005csimpfxo.ttf
p3080
aVc:\u005cwindows\u005cfonts\u005cmangal.ttf
p3081
aVc:\u005cwindows\u005cfonts\u005ctrebuc.ttf
p3082
aVc:\u005cwindows\u005cfonts\u005csimhei.ttf
p3083
aVC:\u005cWindows\u005cFonts\u005cMATURASC.TTF
p3084
aVc:\u005cwindows\u005cfonts\u005cgil_____.ttf
p3085
aVc:\u005cwindows\u005cfonts\u005claoui.ttf
p3086
aVC:\u005cWindows\u005cFonts\u005cGLSNECB.TTF
p3087
aVc:\u005cwindows\u005cfonts\u005clucon.ttf
p3088
aVC:\u005cWindows\u005cFonts\u005cBRUSHSCI.TTF
p3089
aVc:\u005cwindows\u005cfonts\u005ccour.ttf
p3090
aVC:\u005cWindows\u005cFonts\u005clatha.ttf
p3091
aVC:\u005cWindows\u005cFonts\u005cbrowaui.ttf
p3092
aVc:\u005cwindows\u005cfonts\u005cdaunpenh.ttf
p3093
aVc:\u005cwindows\u005cfonts\u005ccalifr.ttf
p3094
aVC:\u005cWindows\u005cFonts\u005cCALIST.TTF
p3095
aVc:\u005cwindows\u005cfonts\u005ctradbdo.ttf
p3096
aVC:\u005cWindows\u005cFonts\u005cariblk.ttf
p3097
aVc:\u005cwindows\u005cfonts\u005ccenscbk.ttf
p3098
aVC:\u005cWindows\u005cFonts\u005ccorbel.ttf
p3099
aVC:\u005cWindows\u005cFonts\u005cGLECB.TTF
p3100
aVC:\u005cWindows\u005cFonts\u005cgautami.ttf
p3101
aVC:\u005cWindows\u005cFonts\u005cNIAGSOL.TTF
p3102
aVC:\u005cWindows\u005cFonts\u005cmsyi.ttf
p3103
aVC:\u005cWindows\u005cFonts\u005ccalibrib.ttf
p3104
aVC:\u005cWindows\u005cFonts\u005clvnm.ttf
p3105
aVC:\u005cWindows\u005cFonts\u005cBOOKOSB.TTF
p3106
aVc:\u005cwindows\u005cfonts\u005cupcdb.ttf
p3107
aVc:\u005cwindows\u005cfonts\u005ctcbi____.ttf
p3108
aVC:\u005cWindows\u005cFonts\u005cupclb.ttf
p3109
aVc:\u005cwindows\u005cfonts\u005cverdanab.ttf
p3110
aVC:\u005cWindows\u005cFonts\u005cphagspab.ttf
p3111
aVc:\u005cwindows\u005cfonts\u005ccourbi.ttf
p3112
aVC:\u005cWindows\u005cFonts\u005cUbuntu-L.ttf
p3113
aVc:\u005cwindows\u005cfonts\u005cphagspa.ttf
p3114
aVc:\u005cwindows\u005cfonts\u005cwingdng3.ttf
p3115
aVC:\u005cWindows\u005cFonts\u005cupcib.ttf
p3116
aVc:\u005cwindows\u005cfonts\u005ccalistb.ttf
p3117
aVC:\u005cWindows\u005cFonts\u005cupcdb.ttf
p3118
aVC:\u005cWindows\u005cFonts\u005cJUICE___.TTF
p3119
aVC:\u005cWindows\u005cFonts\u005cconsola.ttf
p3120
aVC:\u005cWindows\u005cFonts\u005cshruti.ttf
p3121
aVc:\u005cwindows\u005cfonts\u005chybrid.ttf
p3122
aVC:\u005cWindows\u005cFonts\u005cangsa.ttf
p3123
aVC:\u005cWindows\u005cFonts\u005cBRADHITC.TTF
p3124
aVc:\u005cwindows\u005cfonts\u005cvineritc.ttf
p3125
aVc:\u005cwindows\u005cfonts\u005cjokerman.ttf
p3126
aVC:\u005cWindows\u005cFonts\u005cLHANDW.TTF
p3127
aVC:\u005cWindows\u005cFonts\u005csegoeuib.ttf
p3128
aVC:\u005cWindows\u005cFonts\u005cebrima.ttf
p3129
aVC:\u005cWindows\u005cFonts\u005cCandaraz.ttf
p3130
aVc:\u005cwindows\u005cfonts\u005citcblkad.ttf
p3131
aVC:\u005cWindows\u005cFonts\u005cBOD_CBI.TTF
p3132
aVc:\u005cwindows\u005cfonts\u005cbaskvill.ttf
p3133
aVC:\u005cWindows\u005cFonts\u005cLFAX.TTF
p3134
aVC:\u005cWindows\u005cFonts\u005caparajb.ttf
p3135
aVc:\u005cwindows\u005cfonts\u005crocki.ttf
p3136
aVC:\u005cWindows\u005cFonts\u005cANTQUAI.TTF
p3137
aVc:\u005cwindows\u005cfonts\u005cbkant.ttf
p3138
aVC:\u005cWindows\u005cFonts\u005cBOD_I.TTF
p3139
aVC:\u005cWindows\u005cFonts\u005cdaunpenh.ttf
p3140
aVc:\u005cwindows\u005cfonts\u005ccalibril.ttf
p3141
aVC:\u005cWindows\u005cFonts\u005cangsau.ttf
p3142
aVc:\u005cwindows\u005cfonts\u005cgarabd.ttf
p3143
aVC:\u005cWindows\u005cFonts\u005cmsuighur.ttf
p3144
aVc:\u005cwindows\u005cfonts\u005ckokilabi.ttf
p3145
aVC:\u005cWindows\u005cFonts\u005ccourbd.ttf
p3146
aVC:\u005cWindows\u005cFonts\u005cexoplanetcondital.ttf
p3147
aVC:\u005cWindows\u005cFonts\u005cSNAP____.TTF
p3148
aVc:\u005cwindows\u005cfonts\u005cgisha.ttf
p3149
aVC:\u005cWindows\u005cFonts\u005cbrowauz.ttf
p3150
aVc:\u005cwindows\u005cfonts\u005ccalist.ttf
p3151
aVc:\u005cwindows\u005cfonts\u005ccurlz___.ttf
p3152
aVc:\u005cwindows\u005cfonts\u005carialbi.ttf
p3153
aVc:\u005cwindows\u005cfonts\u005ctrebucit.ttf
p3154
aVC:\u005cWindows\u005cFonts\u005cBOOKOSI.TTF
p3155
aVc:\u005cwindows\u005cfonts\u005cbritanic.ttf
p3156
aVC:\u005cWindows\u005cFonts\u005cROCKB.TTF
p3157
aVc:\u005cwindows\u005cfonts\u005ccourbd.ttf
p3158
aVc:\u005cwindows\u005cfonts\u005cpertili.ttf
p3159
aVC:\u005cWindows\u005cFonts\u005cCALIFB.TTF
p3160
aVc:\u005cwindows\u005cfonts\u005cubuntu-ri.ttf
p3161
aVc:\u005cwindows\u005cfonts\u005csimsunb.ttf
p3162
aVc:\u005cwindows\u005cfonts\u005cshrutib.ttf
p3163
aVC:\u005cWindows\u005cFonts\u005cTCCEB.TTF
p3164
aVC:\u005cWindows\u005cFonts\u005cBOD_BI.TTF
p3165
aVc:\u005cwindows\u005cfonts\u005cbrowaui.ttf
p3166
aVC:\u005cWindows\u005cFonts\u005cREFSAN.TTF
p3167
aVC:\u005cWindows\u005cFonts\u005ctrado.ttf
p3168
aVc:\u005cwindows\u005cfonts\u005cframdit.ttf
p3169
aVc:\u005cwindows\u005cfonts\u005cbauhs93.ttf
p3170
aVc:\u005cwindows\u005cfonts\u005clcallig.ttf
p3171
aVC:\u005cWindows\u005cFonts\u005cLTYPEBO.TTF
p3172
aVc:\u005cwindows\u005cfonts\u005cgilbi___.ttf
p3173
aVc:\u005cwindows\u005cfonts\u005cmriam.ttf
p3174
aVC:\u005cWindows\u005cFonts\u005cupcii.ttf
p3175
aVc:\u005cwindows\u005cfonts\u005ctimesbi.ttf
p3176
aVc:\u005cwindows\u005cfonts\u005cmangalb.ttf
p3177
aVc:\u005cwindows\u005cfonts\u005ccomicbd.ttf
p3178
aVc:\u005cwindows\u005cfonts\u005ccandarab.ttf
p3179
aVC:\u005cWindows\u005cFonts\u005cMOD20.TTF
p3180
aVC:\u005cWindows\u005cFonts\u005cLTYPE.TTF
p3181
aVc:\u005cwindows\u005cfonts\u005cupcjbi.ttf
p3182
aVc:\u005cwindows\u005cfonts\u005cltypeo.ttf
p3183
aVC:\u005cWindows\u005cFonts\u005cgeorgiaz.ttf
p3184
aVc:\u005cwindows\u005cfonts\u005cupclb.ttf
p3185
aVC:\u005cWindows\u005cFonts\u005cmsjh.ttf
p3186
aVC:\u005cWindows\u005cFonts\u005cERASLGHT.TTF
p3187
aVC:\u005cWindows\u005cFonts\u005cTCM_____.TTF
p3188
aVc:\u005cwindows\u005cfonts\u005cubuntu-bi.ttf
p3189
aVC:\u005cWindows\u005cFonts\u005carialbi.ttf
p3190
aVc:\u005cwindows\u005cfonts\u005cupcebi.ttf
p3191
aVc:\u005cwindows\u005cfonts\u005cubuntumono-r.ttf
p3192
aVc:\u005cwindows\u005cfonts\u005ccalibrili.ttf
p3193
aVC:\u005cWindows\u005cFonts\u005cdavid.ttf
p3194
aVC:\u005cWindows\u005cFonts\u005cGIGI.TTF
p3195
aVc:\u005cwindows\u005cfonts\u005cantquab.ttf
p3196
aVC:\u005cWindows\u005cFonts\u005cROCCB___.TTF
p3197
aVC:\u005cWindows\u005cFonts\u005ccambriai.ttf
p3198
aVC:\u005cWindows\u005cFonts\u005cCALIFR.TTF
p3199
aVC:\u005cWindows\u005cFonts\u005cupcdbi.ttf
p3200
aVc:\u005cwindows\u005cfonts\u005ccandarai.ttf
p3201
aVc:\u005cwindows\u005cfonts\u005csegoesc.ttf
p3202
aVc:\u005cwindows\u005cfonts\u005cfrabk.ttf
p3203
aVc:\u005cwindows\u005cfonts\u005caparaj.ttf
p3204
aVc:\u005cwindows\u005cfonts\u005cgoudosb.ttf
p3205
aVC:\u005cWindows\u005cFonts\u005ccordiaub.ttf
p3206
aVc:\u005cwindows\u005cfonts\u005ceraslght.ttf
p3207
aVC:\u005cWindows\u005cFonts\u005cTCBI____.TTF
p3208
aVC:\u005cWindows\u005cFonts\u005cCOOPBL.TTF
p3209
aVc:\u005cwindows\u005cfonts\u005cconstanb.ttf
p3210
aVc:\u005cwindows\u005cfonts\u005cpertibd.ttf
p3211
aVc:\u005cwindows\u005cfonts\u005cgautami.ttf
p3212
aVC:\u005cWindows\u005cFonts\u005cutsaahbi.ttf
p3213
aVc:\u005cwindows\u005cfonts\u005celephnti.ttf
p3214
aVC:\u005cWindows\u005cFonts\u005ctimesi.ttf
p3215
aVc:\u005cwindows\u005cfonts\u005cgothicbi.ttf
p3216
aVC:\u005cWindows\u005cFonts\u005cvijayab.ttf
p3217
aVC:\u005cWindows\u005cFonts\u005cGabriola.ttf
p3218
aVc:\u005cwindows\u005cfonts\u005charngton.ttf
p3219
aVc:\u005cwindows\u005cfonts\u005ccalibriz.ttf
p3220
aVC:\u005cWindows\u005cFonts\u005cGILSANUB.TTF
p3221
aVC:\u005cWindows\u005cFonts\u005cTCB_____.TTF
p3222
aVc:\u005cwindows\u005cfonts\u005ciskpota.ttf
p3223
aVC:\u005cWindows\u005cFonts\u005cBOD_CB.TTF
p3224
aVC:\u005cWindows\u005cFonts\u005cENGR.TTF
p3225
aVC:\u005cWindows\u005cFonts\u005cCandarai.ttf
p3226
aVC:\u005cWindows\u005cFonts\u005cangsauz.ttf
p3227
aVc:\u005cwindows\u005cfonts\u005cgarait.ttf
p3228
aVC:\u005cWindows\u005cFonts\u005ctrebucbd.ttf
p3229
aVc:\u005cwindows\u005cfonts\u005cupcib.ttf
p3230
aVC:\u005cWindows\u005cFonts\u005csamarn.ttf
p3231
aVC:\u005cWindows\u005cFonts\u005ccouri.ttf
p3232
aVc:\u005cwindows\u005cfonts\u005cgilb____.ttf
p3233
aVC:\u005cWindows\u005cFonts\u005ccordiauz.ttf
p3234
aVc:\u005cwindows\u005cfonts\u005ccordiab.ttf
p3235
aVc:\u005cwindows\u005cfonts\u005ceuphemia.ttf
p3236
aVc:\u005cwindows\u005cfonts\u005ccentury.ttf
p3237
aVc:\u005cwindows\u005cfonts\u005cangsab.ttf
p3238
aVc:\u005cwindows\u005cfonts\u005caparaji.ttf
p3239
aVc:\u005cwindows\u005cfonts\u005cfrabkit.ttf
p3240
aVc:\u005cwindows\u005cfonts\u005cconstanz.ttf
p3241
aVC:\u005cWindows\u005cFonts\u005cmonbaiti.ttf
p3242
aVC:\u005cWindows\u005cFonts\u005caparaj.ttf
p3243
aVc:\u005cwindows\u005cfonts\u005carialnb.ttf
p3244
aVc:\u005cwindows\u005cfonts\u005coutlook.ttf
p3245
aVC:\u005cWindows\u005cFonts\u005csylfaen.ttf
p3246
aVc:\u005cwindows\u005cfonts\u005clfaxdi.ttf
p3247
aVc:\u005cwindows\u005cfonts\u005ccandara.ttf
p3248
aVC:\u005cWindows\u005cFonts\u005cCOPRGTL.TTF
p3249
aVC:\u005cWindows\u005cFonts\u005cPER_____.TTF
p3250
aVc:\u005cwindows\u005cfonts\u005cvijaya.ttf
p3251
aVc:\u005cwindows\u005cfonts\u005carialn.ttf
p3252
aVc:\u005cwindows\u005cfonts\u005ccolonna.ttf
p3253
aVC:\u005cWindows\u005cFonts\u005ccordiai.ttf
p3254
aVC:\u005cWindows\u005cFonts\u005csegoeuil.ttf
p3255
aVC:\u005cWindows\u005cFonts\u005csimpbdo.ttf
p3256
aVc:\u005cwindows\u005cfonts\u005clfax.ttf
p3257
aVC:\u005cWindows\u005cFonts\u005ctungab.ttf
p3258
aVC:\u005cWindows\u005cFonts\u005cmriam.ttf
p3259
aVC:\u005cWindows\u005cFonts\u005cGILI____.TTF
p3260
aVC:\u005cWindows\u005cFonts\u005cmajallab.ttf
p3261
aVC:\u005cWindows\u005cFonts\u005ccomicbd.ttf
p3262
aVC:\u005cWindows\u005cFonts\u005cRAGE.TTF
p3263
aVc:\u005cwindows\u005cfonts\u005chatten.ttf
p3264
aVC:\u005cWindows\u005cFonts\u005ciskpota.ttf
p3265
aVC:\u005cWindows\u005cFonts\u005cPERBI___.TTF
p3266
aVc:\u005cwindows\u005cfonts\u005cupcjl.ttf
p3267
aVC:\u005cWindows\u005cFonts\u005cShonar.ttf
p3268
aVc:\u005cwindows\u005cfonts\u005cbrlnsr.ttf
p3269
aVC:\u005cWindows\u005cFonts\u005cLATINWD.TTF
p3270
aVC:\u005cWindows\u005cFonts\u005cBSSYM7.TTF
p3271
aVc:\u005cwindows\u005cfonts\u005cmsyi.ttf
p3272
aVc:\u005cwindows\u005cfonts\u005cwingding.ttf
p3273
aVC:\u005cWindows\u005cFonts\u005csimkai.ttf
p3274
aVc:\u005cwindows\u005cfonts\u005cbell.ttf
p3275
aVC:\u005cWindows\u005cFonts\u005ctradbdo.ttf
p3276
aVc:\u005cprogram files\u005ccommon files\u005cmicrosoft shared\u005cequation\u005cmtextra.ttf
p3277
aVC:\u005cWindows\u005cFonts\u005csimhei.ttf
p3278
aVC:\u005cWindows\u005cFonts\u005cbrowai.ttf
p3279
aVC:\u005cWindows\u005cFonts\u005ccorbelz.ttf
p3280
aVC:\u005cWindows\u005cFonts\u005cFORTE.TTF
p3281
aVC:\u005cWindows\u005cFonts\u005cBOD_B.TTF
p3282
aVC:\u005cWindows\u005cFonts\u005cupcji.ttf
p3283
aVc:\u005cwindows\u005cfonts\u005csegoescb.ttf
p3284
aVC:\u005cWindows\u005cFonts\u005carialbd.ttf
p3285
aVC:\u005cWindows\u005cFonts\u005cFRAHVIT.TTF
p3286
aVC:\u005cWindows\u005cFonts\u005ccomic.ttf
p3287
aVC:\u005cWindows\u005cFonts\u005cTCCM____.TTF
p3288
aVc:\u005cwindows\u005cfonts\u005cjuice___.ttf
p3289
aVC:\u005cWindows\u005cFonts\u005cFRSCRIPT.TTF
p3290
aVC:\u005cWindows\u005cFonts\u005cSCHLBKB.TTF
p3291
aVc:\u005cwindows\u005cfonts\u005cangsa.ttf
p3292
aVc:\u005cwindows\u005cfonts\u005clsans.ttf
p3293
aVC:\u005cWindows\u005cFonts\u005cMISTRAL.TTF
p3294
aVc:\u005cwindows\u005cfonts\u005cframdcn.ttf
p3295
aVC:\u005cWindows\u005cFonts\u005cupcel.ttf
p3296
aVC:\u005cWindows\u005cFonts\u005cGARABD.TTF
p3297
aVC:\u005cWindows\u005cFonts\u005cFRABKIT.TTF
p3298
aVC:\u005cWindows\u005cFonts\u005cupcjl.ttf
p3299
aVC:\u005cWindows\u005cFonts\u005cCASTELAR.TTF
p3300
aVc:\u005cwindows\u005cfonts\u005cpalab.ttf
p3301
aVc:\u005cwindows\u005cfonts\u005cbrushsci.ttf
p3302
aVC:\u005cWindows\u005cFonts\u005cLFAXI.TTF
p3303
aVc:\u005cwindows\u005cfonts\u005cfreescpt.ttf
p3304
aVc:\u005cwindows\u005cfonts\u005cbod_ci.ttf
p3305
aVC:\u005cWindows\u005cFonts\u005cBELL.TTF
p3306
aVc:\u005cwindows\u005cfonts\u005cgilsanub.ttf
p3307
aVC:\u005cWindows\u005cFonts\u005cPAPYRUS.TTF
p3308
aVc:\u005cwindows\u005cfonts\u005cgigi.ttf
p3309
aVc:\u005cwindows\u005cfonts\u005ctempsitc.ttf
p3310
aVC:\u005cWindows\u005cFonts\u005cLBRITED.TTF
p3311
aVC:\u005cWindows\u005cFonts\u005cBRLNSB.TTF
p3312
aVc:\u005cwindows\u005cfonts\u005cupclbi.ttf
p3313
aVc:\u005cwindows\u005cfonts\u005cfrank.ttf
p3314
aVc:\u005cwindows\u005cfonts\u005clatinwd.ttf
p3315
aVC:\u005cWindows\u005cFonts\u005craavib.ttf
p3316
aVc:\u005cwindows\u005cfonts\u005chtowert.ttf
p3317
aVc:\u005cwindows\u005cfonts\u005cpapyrus.ttf
p3318
aVc:\u005cwindows\u005cfonts\u005clbritedi.ttf
p3319
aVC:\u005cWindows\u005cFonts\u005ccomputer.ttf
p3320
aVc:\u005cwindows\u005cfonts\u005celephnt.ttf
p3321
aVc:\u005cwindows\u005cfonts\u005caparajb.ttf
p3322
aVC:\u005cWindows\u005cFonts\u005cdavidbd.ttf
p3323
aVc:\u005cwindows\u005cfonts\u005cariblk.ttf
p3324
aVC:\u005cWindows\u005cFonts\u005cntailu.ttf
p3325
aVC:\u005cWindows\u005cFonts\u005cupcli.ttf
p3326
aVc:\u005cwindows\u005cfonts\u005cfradmcn.ttf
p3327
aVc:\u005cwindows\u005cfonts\u005cconsolaz.ttf
p3328
aVc:\u005cwindows\u005cfonts\u005cbookosbi.ttf
p3329
aVc:\u005cwindows\u005cfonts\u005craavib.ttf
p3330
aVC:\u005cWindows\u005cFonts\u005cHTOWERT.TTF
p3331
aVc:\u005cwindows\u005cfonts\u005cupcei.ttf
p3332
aVc:\u005cwindows\u005cfonts\u005cupckb.ttf
p3333
aVC:\u005cWindows\u005cFonts\u005cVanib.ttf
p3334
aVC:\u005cWindows\u005cFonts\u005cTEMPSITC.TTF
p3335
aVC:\u005cWindows\u005cFonts\u005ctrebuc.ttf
p3336
aVC:\u005cWindows\u005cFonts\u005ccorbeli.ttf
p3337
aVC:\u005cWindows\u005cFonts\u005cgishabd.ttf
p3338
aVC:\u005cWindows\u005cFonts\u005cconsolab.ttf
p3339
aVC:\u005cWindows\u005cFonts\u005cUbuntu-C.ttf
p3340
aVC:\u005cWindows\u005cFonts\u005cLBRITEI.TTF
p3341
aVC:\u005cWindows\u005cFonts\u005cPERB____.TTF
p3342
aVC:\u005cWindows\u005cFonts\u005cestre.ttf
p3343
aVc:\u005cwindows\u005cfonts\u005cnyala.ttf
p3344
aVC:\u005cWindows\u005cFonts\u005cBELLB.TTF
p3345
aVc:\u005cwindows\u005cfonts\u005crock.ttf
p3346
aVc:\u005cwindows\u005cfonts\u005cupcll.ttf
p3347
aVc:\u005cwindows\u005cfonts\u005cubuntu-b.ttf
p3348
aVC:\u005cWindows\u005cFonts\u005cvrinda.ttf
p3349
aVc:\u005cwindows\u005cfonts\u005clsansdi.ttf
p3350
aVc:\u005cwindows\u005cfonts\u005ccorbeli.ttf
p3351
aVc:\u005cwindows\u005cfonts\u005ctcb_____.ttf
p3352
aVC:\u005cWindows\u005cFonts\u005cFRADMIT.TTF
p3353
aVC:\u005cWindows\u005cFonts\u005cGOTHICB.TTF
p3354
aVc:\u005cwindows\u005cfonts\u005crockbi.ttf
p3355
aVC:\u005cWindows\u005cFonts\u005cgeorgia.ttf
p3356
aVc:\u005cwindows\u005cfonts\u005cniagsol.ttf
p3357
aVc:\u005cwindows\u005cfonts\u005ccalibrii.ttf
p3358
aVc:\u005cwindows\u005cfonts\u005ctimesi.ttf
p3359
aVc:\u005cwindows\u005cfonts\u005cupcfl.ttf
p3360
aVC:\u005cWindows\u005cFonts\u005cPERTILI.TTF
p3361
aVC:\u005cWindows\u005cFonts\u005cUbuntu-B.ttf
p3362
aVC:\u005cWindows\u005cFonts\u005cELEPHNT.TTF
p3363
aVC:\u005cWindows\u005cFonts\u005camstrad_cpc464.ttf
p3364
aVC:\u005cWindows\u005cFonts\u005ccourbi.ttf
p3365
aVC:\u005cWindows\u005cFonts\u005ccorbelb.ttf
p3366
aVC:\u005cWindows\u005cFonts\u005cOCRAEXT.TTF
p3367
aVc:\u005cwindows\u005cfonts\u005cmsuighur.ttf
p3368
aVc:\u005cwindows\u005cfonts\u005cupcfb.ttf
p3369
aVC:\u005cWindows\u005cFonts\u005cpalai.ttf
p3370
aVc:\u005cwindows\u005cfonts\u005cgoudysto.ttf
p3371
aVC:\u005cWindows\u005cFonts\u005cBELLI.TTF
p3372
aVC:\u005cWindows\u005cFonts\u005cERASBD.TTF
p3373
aVC:\u005cWindows\u005cFonts\u005cangsaub.ttf
p3374
aVC:\u005cWindows\u005cFonts\u005cupckb.ttf
p3375
aVC:\u005cWindows\u005cFonts\u005cGARAIT.TTF
p3376
aVC:\u005cWindows\u005cFonts\u005cLaoUIb.ttf
p3377
aVC:\u005cWindows\u005cFonts\u005cPLAYBILL.TTF
p3378
aVc:\u005cwindows\u005cfonts\u005calger.ttf
p3379
aVc:\u005cwindows\u005cfonts\u005cmaturasc.ttf
p3380
aVc:\u005cwindows\u005cfonts\u005ccordiaui.ttf
p3381
aVc:\u005cwindows\u005cfonts\u005cltype.ttf
p3382
aVC:\u005cWindows\u005cFonts\u005cGARA.TTF
p3383
aVC:\u005cWindows\u005cFonts\u005cFRADM.TTF
p3384
aVC:\u005cWindows\u005cFonts\u005cRAVIE.TTF
p3385
aVc:\u005cwindows\u005cfonts\u005cpalscri.ttf
p3386
aVC:\u005cWindows\u005cFonts\u005cnyala.ttf
p3387
aVc:\u005cwindows\u005cfonts\u005cgothic.ttf
p3388
aVC:\u005cWindows\u005cFonts\u005cUbuntu-LI.ttf
p3389
aVc:\u005cwindows\u005cfonts\u005cmalgunbd.ttf
p3390
aVc:\u005cwindows\u005cfonts\u005cnrkis.ttf
p3391
aVC:\u005cWindows\u005cFonts\u005cShonarb.ttf
p3392
aVc:\u005cwindows\u005cfonts\u005cubuntumono-ri.ttf
p3393
aVC:\u005cWindows\u005cFonts\u005cwebdings.ttf
p3394
aVc:\u005cwindows\u005cfonts\u005cntailu.ttf
p3395
aVc:\u005cwindows\u005cfonts\u005cper_____.ttf
p3396
aVc:\u005cwindows\u005cfonts\u005ckartikab.ttf
p3397
aVc:\u005cwindows\u005cfonts\u005cdavid.ttf
p3398
aVC:\u005cWindows\u005cFonts\u005ccalibrili.ttf
p3399
aVc:\u005cwindows\u005cfonts\u005cgara.ttf
p3400
aVC:\u005cWindows\u005cFonts\u005cSHOWG.TTF
p3401
aVc:\u005cwindows\u005cfonts\u005clfaxi.ttf
p3402
aVC:\u005cWindows\u005cFonts\u005cbrowau.ttf
p3403
aVc:\u005cwindows\u005cfonts\u005cfrahv.ttf
p3404
aVC:\u005cWindows\u005cFonts\u005cNIAGENG.TTF
p3405
aVc:\u005cwindows\u005cfonts\u005cupcfbi.ttf
p3406
aVc:\u005cwindows\u005cfonts\u005cleelawdb.ttf
p3407
aVc:\u005cwindows\u005cfonts\u005cgeorgiaz.ttf
p3408
aVC:\u005cWindows\u005cFonts\u005cbrowa.ttf
p3409
aVC:\u005cWindows\u005cFonts\u005cLaoUI.ttf
p3410
aVc:\u005cwindows\u005cfonts\u005cwebdings.ttf
p3411
aVC:\u005cWindows\u005cFonts\u005cupclbi.ttf
p3412
aVC:\u005cWindows\u005cFonts\u005candlso.ttf
p3413
aVC:\u005cWindows\u005cFonts\u005csegoeuiz.ttf
p3414
aVC:\u005cWindows\u005cFonts\u005cINFROMAN.TTF
p3415
aVC:\u005cWindows\u005cFonts\u005cntailub.ttf
p3416
aVc:\u005cwindows\u005cfonts\u005cvanib.ttf
p3417
aVc:\u005cwindows\u005cfonts\u005cubuntumono-b.ttf
p3418
aVc:\u005cwindows\u005cfonts\u005cconsolai.ttf
p3419
aVc:\u005cwindows\u005cfonts\u005crefspcl.ttf
p3420
aVc:\u005cwindows\u005cfonts\u005cgoudosi.ttf
p3421
aVc:\u005cwindows\u005cfonts\u005cmsjh.ttf
p3422
aVc:\u005cwindows\u005cfonts\u005cgeorgia.ttf
p3423
aVc:\u005cwindows\u005cfonts\u005clbrite.ttf
p3424
aVC:\u005cWindows\u005cFonts\u005ckokila.ttf
p3425
aVC:\u005cWindows\u005cFonts\u005cverdana.ttf
p3426
aVc:\u005cwindows\u005cfonts\u005csegoeuii.ttf
p3427
aVc:\u005cwindows\u005cfonts\u005cfrscript.ttf
p3428
aVC:\u005cWindows\u005cFonts\u005cROCK.TTF
p3429
aVc:\u005cwindows\u005cfonts\u005cupcli.ttf
p3430
aVc:\u005cwindows\u005cfonts\u005cmonbaiti.ttf
p3431
aVC:\u005cWindows\u005cFonts\u005cARIALNBI.TTF
p3432
aVc:\u005cwindows\u005cfonts\u005ckaiu.ttf
p3433
aVc:\u005cwindows\u005cfonts\u005cbod_blar.ttf
p3434
aVc:\u005cwindows\u005cfonts\u005ccoprgtb.ttf
p3435
aVc:\u005cwindows\u005cfonts\u005ccorbel.ttf
p3436
aVC:\u005cWindows\u005cFonts\u005cGOUDOSI.TTF
p3437
aVC:\u005cWindows\u005cFonts\u005cHARNGTON.TTF
p3438
aVc:\u005cwindows\u005cfonts\u005cgilc____.ttf
p3439
aVc:\u005cwindows\u005cfonts\u005ckokila.ttf
p3440
aVC:\u005cWindows\u005cFonts\u005cutsaahi.ttf
p3441
aVc:\u005cwindows\u005cfonts\u005ccomputer.ttf
p3442
aVC:\u005cWindows\u005cFonts\u005cPARCHM.TTF
p3443
aVc:\u005cwindows\u005cfonts\u005cmistral.ttf
p3444
aVc:\u005cwindows\u005cfonts\u005cmajallab.ttf
p3445
aVc:\u005cwindows\u005cfonts\u005cbrowaz.ttf
p3446
aVc:\u005cwindows\u005cfonts\u005crocc____.ttf
p3447
aVC:\u005cWindows\u005cFonts\u005csymbol.ttf
p3448
aVC:\u005cWindows\u005cFonts\u005cupcdi.ttf
p3449
aVC:\u005cWindows\u005cFonts\u005cbrowaub.ttf
p3450
aVC:\u005cWindows\u005cFonts\u005caparaji.ttf
p3451
aVc:\u005cwindows\u005cfonts\u005ccordiau.ttf
p3452
aVc:\u005cwindows\u005cfonts\u005cupceb.ttf
p3453
aVC:\u005cWindows\u005cFonts\u005cVIVALDII.TTF
p3454
aVC:\u005cWindows\u005cFonts\u005cBOOKOS.TTF
p3455
aVC:\u005cWindows\u005cFonts\u005cpalab.ttf
p3456
aVC:\u005cWindows\u005cFonts\u005cgisha.ttf
p3457
aVC:\u005cWindows\u005cFonts\u005cmsyh.ttf
p3458
aVC:\u005cWindows\u005cFonts\u005carial.ttf
p3459
aVc:\u005cwindows\u005cfonts\u005ccorbelz.ttf
p3460
aVC:\u005cWindows\u005cFonts\u005ctahoma.ttf
p3461
aVC:\u005cWindows\u005cFonts\u005cMAGNETOB.TTF
p3462
aVC:\u005cWindows\u005cFonts\u005cAGENCYB.TTF
p3463
aVc:\u005cwindows\u005cfonts\u005ctccm____.ttf
p3464
aVc:\u005cwindows\u005cfonts\u005cglsnecb.ttf
p3465
aVc:\u005cwindows\u005cfonts\u005ccomic.ttf
p3466
aVC:\u005cWindows\u005cFonts\u005cfrank.ttf
p3467
aVc:\u005cwindows\u005cfonts\u005csegoeprb.ttf
p3468
aVC:\u005cWindows\u005cFonts\u005csimsunb.ttf
p3469
aVc:\u005cwindows\u005cfonts\u005cangsaz.ttf
p3470
aVC:\u005cWindows\u005cFonts\u005cFRAMDCN.TTF
p3471
aVC:\u005cWindows\u005cFonts\u005cIMPRISHA.TTF
p3472
aVC:\u005cWindows\u005cFonts\u005cGIL_____.TTF
p3473
aVC:\u005cWindows\u005cFonts\u005cahronbd.ttf
p3474
aVC:\u005cWindows\u005cFonts\u005cverdanab.ttf
p3475
aVC:\u005cWindows\u005cFonts\u005cFTLTLT.TTF
p3476
aVC:\u005cWindows\u005cFonts\u005cUbuntu-BI.ttf
p3477
aVc:\u005cwindows\u005cfonts\u005ctahoma.ttf
p3478
aVc:\u005cwindows\u005cfonts\u005cgothicb.ttf
p3479
aVc:\u005cwindows\u005cfonts\u005ckalinga.ttf
p3480
aVc:\u005cwindows\u005cfonts\u005ccordiaub.ttf
p3481
aVC:\u005cWindows\u005cFonts\u005csimpo.ttf
p3482
aVc:\u005cwindows\u005cfonts\u005cvivaldii.ttf
p3483
aVc:\u005cwindows\u005cfonts\u005candlso.ttf
p3484
aVc:\u005cwindows\u005cfonts\u005cbookos.ttf
p3485
aVC:\u005cWindows\u005cFonts\u005cUbuntu-MI.ttf
p3486
aVc:\u005cwindows\u005cfonts\u005ccalibrib.ttf
p3487
aVc:\u005cwindows\u005cfonts\u005cframd.ttf
p3488
aVC:\u005cWindows\u005cFonts\u005cCALIFI.TTF
p3489
aVc:\u005cwindows\u005cfonts\u005cbrlnsdb.ttf
p3490
aVc:\u005cwindows\u005cfonts\u005cperb____.ttf
p3491
aVc:\u005cwindows\u005cfonts\u005cupcdi.ttf
p3492
aVC:\u005cWindows\u005cFonts\u005cupcjb.ttf
p3493
aVc:\u005cwindows\u005cfonts\u005crage.ttf
p3494
aVc:\u005cwindows\u005cfonts\u005carialnbi.ttf
p3495
aVc:\u005cwindows\u005cfonts\u005cbod_cb.ttf
p3496
aVc:\u005cwindows\u005cfonts\u005ccordiai.ttf
p3497
aVc:\u005cwindows\u005cfonts\u005cparchm.ttf
p3498
aVc:\u005cwindows\u005cfonts\u005charlowsi.ttf
p3499
aVC:\u005cWindows\u005cFonts\u005cupceb.ttf
p3500
aVC:\u005cWindows\u005cFonts\u005cPOORICH.TTF
p3501
aVc:\u005cwindows\u005cfonts\u005cimpact.ttf
p3502
aVc:\u005cwindows\u005cfonts\u005cmalgun.ttf
p3503
aVC:\u005cWindows\u005cFonts\u005cBOD_CR.TTF
p3504
aVc:\u005cwindows\u005cfonts\u005cshowg.ttf
p3505
aVc:\u005cwindows\u005cfonts\u005carialni.ttf
p3506
aVC:\u005cWindows\u005cFonts\u005cLSANSDI.TTF
p3507
aVc:\u005cwindows\u005cfonts\u005cgothici.ttf
p3508
aVC:\u005cWindows\u005cFonts\u005ccambriab.ttf
p3509
aVC:\u005cWindows\u005cFonts\u005cteamviewer10.otf
p3510
aVC:\u005cWindows\u005cFonts\u005cROCKEB.TTF
p3511
aVC:\u005cWindows\u005cFonts\u005cVani.ttf
p3512
aVC:\u005cWindows\u005cFonts\u005cmsyhbd.ttf
p3513
aVC:\u005cWindows\u005cFonts\u005cERASDEMI.TTF
p3514
aVc:\u005cwindows\u005cfonts\u005cgeorgiai.ttf
p3515
aVc:\u005cwindows\u005cfonts\u005claouib.ttf
p3516
aVC:\u005cWindows\u005cFonts\u005cLBRITE.TTF
p3517
aVc:\u005cwindows\u005cfonts\u005chimalaya.ttf
p3518
aVc:\u005cwindows\u005cfonts\u005cforte.ttf
p3519
aVc:\u005cwindows\u005cfonts\u005cpala.ttf
p3520
aVC:\u005cWindows\u005cFonts\u005cAGENCYR.TTF
p3521
aVc:\u005cwindows\u005cfonts\u005cestre.ttf
p3522
aVc:\u005cwindows\u005cfonts\u005cgoudos.ttf
p3523
aVc:\u005cwindows\u005cfonts\u005ctcceb.ttf
p3524
aVc:\u005cwindows\u005cfonts\u005ckunstler.ttf
p3525
aVC:\u005cWindows\u005cFonts\u005cARIALUNI.TTF
p3526
aVC:\u005cWindows\u005cFonts\u005cALGER.TTF
p3527
aVc:\u005cwindows\u005cfonts\u005crod.ttf
p3528
aVc:\u005cwindows\u005cfonts\u005ccordiaz.ttf
p3529
aVC:\u005cWindows\u005cFonts\u005cariali.ttf
p3530
aVc:\u005cwindows\u005cfonts\u005cseguisym.ttf
p3531
aVC:\u005cWindows\u005cFonts\u005cBOD_BLAR.TTF
p3532
aVc:\u005cwindows\u005cfonts\u005csnap____.ttf
p3533
aVc:\u005cwindows\u005cfonts\u005ccandaraz.ttf
p3534
aVc:\u005cwindows\u005cfonts\u005cagencyr.ttf
p3535
aVc:\u005cwindows\u005cfonts\u005citcedscr.ttf
p3536
aVC:\u005cWindows\u005cFonts\u005cITCEDSCR.TTF
p3537
aVC:\u005cWindows\u005cFonts\u005cebrimabd.ttf
p3538
aVC:\u005cWindows\u005cFonts\u005cSCHLBKI.TTF
p3539
aVC:\u005cWindows\u005cFonts\u005cUbuntuMono-RI.ttf
p3540
aVC:\u005cWindows\u005cFonts\u005cCENSCBK.TTF
p3541
aVc:\u005cwindows\u005cfonts\u005ccambriaz.ttf
p3542
aVC:\u005cWindows\u005cFonts\u005cbrowaz.ttf
p3543
aVc:\u005cwindows\u005cfonts\u005czwadobef.ttf
p3544
aVC:\u005cWindows\u005cFonts\u005cGOUDYSTO.TTF
p3545
aVc:\u005cwindows\u005cfonts\u005cangsau.ttf
p3546
aVc:\u005cwindows\u005cfonts\u005cteamviewer10.otf
p3547
aVc:\u005cwindows\u005cfonts\u005coldengl.ttf
p3548
aVc:\u005cwindows\u005cfonts\u005cgeorgiab.ttf
p3549
aVC:\u005cWindows\u005cFonts\u005csimfang.ttf
p3550
aVc:\u005cwindows\u005cfonts\u005cangsaub.ttf
p3551
aVC:\u005cWindows\u005cFonts\u005cVINERITC.TTF
p3552
aVC:\u005cWindows\u005cFonts\u005cconstan.ttf
p3553
aVC:\u005cWindows\u005cFonts\u005cmangal.ttf
p3554
aVC:\u005cWindows\u005cFonts\u005csimpfxo.ttf
p3555
aVc:\u005cwindows\u005cfonts\u005cniageng.ttf
p3556
aVC:\u005cWindows\u005cFonts\u005cREFSPCL.TTF
p3557
aVC:\u005cWindows\u005cFonts\u005cROCKBI.TTF
p3558
aVc:\u005cwindows\u005cfonts\u005clsansd.ttf
p3559
aVC:\u005cWindows\u005cFonts\u005cpala.ttf
p3560
aVC:\u005cWindows\u005cFonts\u005cROCC____.TTF
p3561
aVc:\u005cwindows\u005cfonts\u005csegoeuib.ttf
p3562
aVc:\u005cwindows\u005cfonts\u005cexoplanetcondital.ttf
p3563
aVC:\u005cWindows\u005cFonts\u005cOUTLOOK.TTF
p3564
aVc:\u005cwindows\u005cfonts\u005camstrad_cpc464.ttf
p3565
aVC:\u005cWindows\u005cFonts\u005cupcfi.ttf
p3566
aVc:\u005cwindows\u005cfonts\u005clbritei.ttf
p3567
aVC:\u005cWindows\u005cFonts\u005cBOD_R.TTF
p3568
aVc:\u005cwindows\u005cfonts\u005chtowerti.ttf
p3569
aVC:\u005cWindows\u005cFonts\u005crod.ttf
p3570
aVc:\u005cwindows\u005cfonts\u005conyx.ttf
p3571
aVc:\u005cwindows\u005cfonts\u005citckrist.ttf
p3572
aVc:\u005cwindows\u005cfonts\u005cubuntu-l.ttf
p3573
aVc:\u005cwindows\u005cfonts\u005clbrited.ttf
p3574
aVC:\u005cWindows\u005cFonts\u005ctrebucit.ttf
p3575
aVc:\u005cwindows\u005cfonts\u005ctungab.ttf
p3576
aVC:\u005cWindows\u005cFonts\u005cGILC____.TTF
p3577
aVC:\u005cWindows\u005cFonts\u005cGOUDOS.TTF
p3578
aVc:\u005cwindows\u005cfonts\u005cebrima.ttf
p3579
aVC:\u005cWindows\u005cFonts\u005cHybrid.ttf
p3580
aVc:\u005cwindows\u005cfonts\u005cbradhitc.ttf
p3581
aVC:\u005cWindows\u005cFonts\u005clucon.ttf
p3582
aVC:\u005cWindows\u005cFonts\u005cCENTURY.TTF
p3583
aVC:\u005cWindows\u005cFonts\u005cBRITANIC.TTF
p3584
aVC:\u005cWindows\u005cFonts\u005cvijaya.ttf
p3585
aVc:\u005cwindows\u005cfonts\u005ctrado.ttf
p3586
aVC:\u005cWindows\u005cFonts\u005cOLDENGL.TTF
p3587
aVc:\u005cwindows\u005cfonts\u005cangsai.ttf
p3588
aVC:\u005cWindows\u005cFonts\u005craavi.ttf
p3589
aVC:\u005cWindows\u005cFonts\u005carabtype.ttf
p3590
aVc:\u005cwindows\u005cfonts\u005cvladimir.ttf
p3591
aVC:\u005cWindows\u005cFonts\u005cARIALNB.TTF
p3592
aVc:\u005cwindows\u005cfonts\u005cmajalla.ttf
p3593
aVc:\u005cwindows\u005cfonts\u005cerasbd.ttf
p3594
aVc:\u005cwindows\u005cfonts\u005craavi.ttf
p3595
aVc:\u005cwindows\u005cfonts\u005cbssym7.ttf
p3596
aVc:\u005cwindows\u005cfonts\u005ctunga.ttf
p3597
aVC:\u005cWindows\u005cFonts\u005ctimesbi.ttf
p3598
aVc:\u005cwindows\u005cfonts\u005cupcibi.ttf
p3599
aVC:\u005cWindows\u005cFonts\u005csegoescb.ttf
p3600
aVC:\u005cWindows\u005cFonts\u005cplantc.ttf
p3601
aVc:\u005cwindows\u005cfonts\u005cvrinda.ttf
p3602
aVC:\u005cWindows\u005cFonts\u005cCENTAUR.TTF
p3603
aVC:\u005cWindows\u005cFonts\u005ciskpotab.ttf
p3604
aVc:\u005cwindows\u005cfonts\u005cverdana.ttf
p3605
aVC:\u005cWindows\u005cFonts\u005ctimesbd.ttf
p3606
aVC:\u005cWindows\u005cFonts\u005cCandara.ttf
p3607
aVc:\u005cwindows\u005cfonts\u005clvnm.ttf
p3608
aVC:\u005cWindows\u005cFonts\u005cutsaah.ttf
p3609
aVC:\u005cWindows\u005cFonts\u005ccalibri.ttf
p3610
aVc:\u005cwindows\u005cfonts\u005clhandw.ttf
p3611
aVC:\u005cWindows\u005cFonts\u005cPRISTINA.TTF
p3612
aVc:\u005cwindows\u005cfonts\u005crockeb.ttf
p3613
aVc:\u005cwindows\u005cfonts\u005ctimesbd.ttf
p3614
aVc:\u005cwindows\u005cfonts\u005cupcki.ttf
p3615
aVc:\u005cwindows\u005cfonts\u005crockb.ttf
p3616
aVc:\u005cwindows\u005cfonts\u005cubuntu-mi.ttf
p3617
aVc:\u005cwindows\u005cfonts\u005cplaybill.ttf
p3618
aVc:\u005cwindows\u005cfonts\u005cltypeb.ttf
p3619
aVC:\u005cWindows\u005cFonts\u005cupckl.ttf
p3620
aVC:\u005cWindows\u005cFonts\u005cGOTHICBI.TTF
p3621
aVC:\u005cWindows\u005cFonts\u005cangsaz.ttf
p3622
aVc:\u005cwindows\u005cfonts\u005cbod_r.ttf
p3623
aVC:\u005cWindows\u005cFonts\u005cleelawad.ttf
p3624
aVc:\u005cwindows\u005cfonts\u005cplantc.ttf
p3625
aVc:\u005cwindows\u005cfonts\u005cbod_pstc.ttf
p3626
aVC:\u005cWindows\u005cFonts\u005cseguisym.ttf
p3627
aVc:\u005cwindows\u005cfonts\u005cconstani.ttf
p3628
aVC:\u005cWindows\u005cFonts\u005ctimes.ttf
p3629
aVC:\u005cWindows\u005cFonts\u005cUbuntuMono-R.ttf
p3630
aVc:\u005cwindows\u005cfonts\u005cshruti.ttf
p3631
aVC:\u005cWindows\u005cFonts\u005cFREESCPT.TTF
p3632
aVC:\u005cWindows\u005cFonts\u005clathab.ttf
p3633
aVc:\u005cwindows\u005cfonts\u005cgabriola.ttf
p3634
aVC:\u005cWindows\u005cFonts\u005cupcdl.ttf
p3635
aVC:\u005cWindows\u005cFonts\u005caparajbi.ttf
p3636
aVc:\u005cwindows\u005cfonts\u005cperbi___.ttf
p3637
aVc:\u005cwindows\u005cfonts\u005cpalabi.ttf
p3638
aVC:\u005cWindows\u005cFonts\u005ccordiaui.ttf
p3639
aVC:\u005cWindows\u005cFonts\u005cphagspa.ttf
p3640
aVC:\u005cWindows\u005cFonts\u005cITCBLKAD.TTF
p3641
aVC:\u005cWindows\u005cFonts\u005cPERTIBD.TTF
p3642
aVc:\u005cwindows\u005cfonts\u005cravie.ttf
p3643
aVc:\u005cwindows\u005cfonts\u005cbrowa.ttf
p3644
aVC:\u005cWindows\u005cFonts\u005cconsolaz.ttf
p3645
aVC:\u005cWindows\u005cFonts\u005cupcei.ttf
p3646
aVc:\u005cwindows\u005cfonts\u005cerasdemi.ttf
p3647
aVC:\u005cWindows\u005cFonts\u005cLBRITEDI.TTF
p3648
aVc:\u005cwindows\u005cfonts\u005clathab.ttf
p3649
aVc:\u005cwindows\u005cfonts\u005cutsaahbi.ttf
p3650
aVc:\u005cwindows\u005cfonts\u005cscriptbl.ttf
p3651
aVC:\u005cWindows\u005cFonts\u005cGOTHICI.TTF
p3652
aVC:\u005cWindows\u005cFonts\u005cMAIAN.TTF
p3653
aVc:\u005cwindows\u005cfonts\u005ccalistbi.ttf
p3654
aVc:\u005cwindows\u005cfonts\u005csimfang.ttf
p3655
aVC:\u005cWindows\u005cFonts\u005cTCCB____.TTF
p3656
aVc:\u005cwindows\u005cfonts\u005cmvboli.ttf
p3657
aVC:\u005cWindows\u005cFonts\u005ccordiau.ttf
p3658
aVC:\u005cWindows\u005cFonts\u005cHARLOWSI.TTF
p3659
aVC:\u005cWindows\u005cFonts\u005cangsaui.ttf
p3660
aVc:\u005cwindows\u005cfonts\u005clvnmbd.ttf
p3661
aVC:\u005cWindows\u005cFonts\u005cKhmerUI.ttf
p3662
aVC:\u005cWindows\u005cFonts\u005cBOOKOSBI.TTF
p3663
aVc:\u005cwindows\u005cfonts\u005cbroadw.ttf
p3664
aVc:\u005cwindows\u005cfonts\u005cbrlnsb.ttf
p3665
aVc:\u005cwindows\u005cfonts\u005cbellb.ttf
p3666
aVC:\u005cWindows\u005cFonts\u005cLCALLIG.TTF
p3667
aVC:\u005cWindows\u005cFonts\u005cBOD_CI.TTF
p3668
aVc:\u005cwindows\u005cfonts\u005ckartika.ttf
p3669
aVc:\u005cwindows\u005cfonts\u005cdokchamp.ttf
p3670
aVC:\u005cWindows\u005cFonts\u005cBOD_PSTC.TTF
p3671
aVc:\u005cwindows\u005cfonts\u005cphagspab.ttf
p3672
aVC:\u005cWindows\u005cFonts\u005cgeorgiab.ttf
p3673
aVc:\u005cwindows\u005cfonts\u005cpoorich.ttf
p3674
aVc:\u005cwindows\u005cfonts\u005cntailub.ttf
p3675
aVc:\u005cwindows\u005cfonts\u005cgishabd.ttf
p3676
aVc:\u005cwindows\u005cfonts\u005cbod_cbi.ttf
p3677
aVC:\u005cWindows\u005cFonts\u005cCandarab.ttf
p3678
aVc:\u005cwindows\u005cfonts\u005ciskpotab.ttf
p3679
aVc:\u005cwindows\u005cfonts\u005cstencil.ttf
p3680
asS'_FontManager__default_weight'
p3681
g18
sS'_version'
p3682
I7
sS'ttf_lookup_cache'
p3683
(dp3684
sS'default_size'
p3685
NsS'defaultFont'
p3686
(dp3687
g2769
Nsg2771
g2805
ssS'afmfiles'
p3688
(lp3689
S'D:\\DATUMARO\\trabajo\\programas_repositorio\\integrador\\tags\\current\\standalone exes\\mpl-data\\fonts\\afm\\pbkd8a.afm'
p3690
aS'D:\\DATUMARO\\trabajo\\programas_repositorio\\integrador\\tags\\current\\standalone exes\\mpl-data\\fonts\\afm\\pncbi8a.afm'
p3691
aS'D:\\DATUMARO\\trabajo\\programas_repositorio\\integrador\\tags\\current\\standalone exes\\mpl-data\\fonts\\pdfcorefonts\\Helvetica.afm'
p3692
aS'D:\\DATUMARO\\trabajo\\programas_repositorio\\integrador\\tags\\current\\standalone exes\\mpl-data\\fonts\\afm\\phvr8a.afm'
p3693
aS'D:\\DATUMARO\\trabajo\\programas_repositorio\\integrador\\tags\\current\\standalone exes\\mpl-data\\fonts\\pdfcorefonts\\Helvetica-Bold.afm'
p3694
aS'D:\\DATUMARO\\trabajo\\programas_repositorio\\integrador\\tags\\current\\standalone exes\\mpl-data\\fonts\\afm\\pplb8a.afm'
p3695
aS'D:\\DATUMARO\\trabajo\\programas_repositorio\\integrador\\tags\\current\\standalone exes\\mpl-data\\fonts\\afm\\pplbi8a.afm'
p3696
aS'D:\\DATUMARO\\trabajo\\programas_repositorio\\integrador\\tags\\current\\standalone exes\\mpl-data\\fonts\\pdfcorefonts\\Courier-Bold.afm'
p3697
aS'D:\\DATUMARO\\trabajo\\programas_repositorio\\integrador\\tags\\current\\standalone exes\\mpl-data\\fonts\\afm\\pbkl8a.afm'
p3698
aS'D:\\DATUMARO\\trabajo\\programas_repositorio\\integrador\\tags\\current\\standalone exes\\mpl-data\\fonts\\afm\\ptmbi8a.afm'
p3699
aS'D:\\DATUMARO\\trabajo\\programas_repositorio\\integrador\\tags\\current\\standalone exes\\mpl-data\\fonts\\afm\\pbkdi8a.afm'
p3700
aS'D:\\DATUMARO\\trabajo\\programas_repositorio\\integrador\\tags\\current\\standalone exes\\mpl-data\\fonts\\afm\\pncr8a.afm'
p3701
aS'D:\\DATUMARO\\trabajo\\programas_repositorio\\integrador\\tags\\current\\standalone exes\\mpl-data\\fonts\\afm\\phvb8an.afm'
p3702
aS'D:\\DATUMARO\\trabajo\\programas_repositorio\\integrador\\tags\\current\\standalone exes\\mpl-data\\fonts\\afm\\putr8a.afm'
p3703
aS'D:\\DATUMARO\\trabajo\\programas_repositorio\\integrador\\tags\\current\\standalone exes\\mpl-data\\fonts\\afm\\pplri8a.afm'
p3704
aS'D:\\DATUMARO\\trabajo\\programas_repositorio\\integrador\\tags\\current\\standalone exes\\mpl-data\\fonts\\afm\\pzdr.afm'
p3705
aS'D:\\DATUMARO\\trabajo\\programas_repositorio\\integrador\\tags\\current\\standalone exes\\mpl-data\\fonts\\pdfcorefonts\\Helvetica-Oblique.afm'
p3706
aS'D:\\DATUMARO\\trabajo\\programas_repositorio\\integrador\\tags\\current\\standalone exes\\mpl-data\\fonts\\afm\\pagko8a.afm'
p3707
aS'D:\\DATUMARO\\trabajo\\programas_repositorio\\integrador\\tags\\current\\standalone exes\\mpl-data\\fonts\\afm\\phvro8a.afm'
p3708
aS'D:\\DATUMARO\\trabajo\\programas_repositorio\\integrador\\tags\\current\\standalone exes\\mpl-data\\fonts\\afm\\phvr8an.afm'
p3709
aS'D:\\DATUMARO\\trabajo\\programas_repositorio\\integrador\\tags\\current\\standalone exes\\mpl-data\\fonts\\afm\\pcrbo8a.afm'
p3710
aS'D:\\DATUMARO\\trabajo\\programas_repositorio\\integrador\\tags\\current\\standalone exes\\mpl-data\\fonts\\pdfcorefonts\\Symbol.afm'
p3711
aS'D:\\DATUMARO\\trabajo\\programas_repositorio\\integrador\\tags\\current\\standalone exes\\mpl-data\\fonts\\afm\\ptmr8a.afm'
p3712
aS'D:\\DATUMARO\\trabajo\\programas_repositorio\\integrador\\tags\\current\\standalone exes\\mpl-data\\fonts\\pdfcorefonts\\Helvetica-BoldOblique.afm'
p3713
aS'D:\\DATUMARO\\trabajo\\programas_repositorio\\integrador\\tags\\current\\standalone exes\\mpl-data\\fonts\\afm\\putri8a.afm'
p3714
aS'D:\\DATUMARO\\trabajo\\programas_repositorio\\integrador\\tags\\current\\standalone exes\\mpl-data\\fonts\\afm\\phvlo8a.afm'
p3715
aS'D:\\DATUMARO\\trabajo\\programas_repositorio\\integrador\\tags\\current\\standalone exes\\mpl-data\\fonts\\afm\\pplr8a.afm'
p3716
aS'D:\\DATUMARO\\trabajo\\programas_repositorio\\integrador\\tags\\current\\standalone exes\\mpl-data\\fonts\\afm\\cmsy10.afm'
p3717
aS'D:\\DATUMARO\\trabajo\\programas_repositorio\\integrador\\tags\\current\\standalone exes\\mpl-data\\fonts\\afm\\pbkli8a.afm'
p3718
aS'D:\\DATUMARO\\trabajo\\programas_repositorio\\integrador\\tags\\current\\standalone exes\\mpl-data\\fonts\\afm\\pcrr8a.afm'
p3719
aS'D:\\DATUMARO\\trabajo\\programas_repositorio\\integrador\\tags\\current\\standalone exes\\mpl-data\\fonts\\pdfcorefonts\\Times-Roman.afm'
p3720
aS'D:\\DATUMARO\\trabajo\\programas_repositorio\\integrador\\tags\\current\\standalone exes\\mpl-data\\fonts\\afm\\pagdo8a.afm'
p3721
aS'D:\\DATUMARO\\trabajo\\programas_repositorio\\integrador\\tags\\current\\standalone exes\\mpl-data\\fonts\\afm\\cmex10.afm'
p3722
aS'D:\\DATUMARO\\trabajo\\programas_repositorio\\integrador\\tags\\current\\standalone exes\\mpl-data\\fonts\\afm\\putbi8a.afm'
p3723
aS'D:\\DATUMARO\\trabajo\\programas_repositorio\\integrador\\tags\\current\\standalone exes\\mpl-data\\fonts\\afm\\psyr.afm'
p3724
aS'D:\\DATUMARO\\trabajo\\programas_repositorio\\integrador\\tags\\current\\standalone exes\\mpl-data\\fonts\\afm\\phvro8an.afm'
p3725
aS'D:\\DATUMARO\\trabajo\\programas_repositorio\\integrador\\tags\\current\\standalone exes\\mpl-data\\fonts\\pdfcorefonts\\Times-Italic.afm'
p3726
aS'D:\\DATUMARO\\trabajo\\programas_repositorio\\integrador\\tags\\current\\standalone exes\\mpl-data\\fonts\\afm\\pcrb8a.afm'
p3727
aS'D:\\DATUMARO\\trabajo\\programas_repositorio\\integrador\\tags\\current\\standalone exes\\mpl-data\\fonts\\afm\\ptmb8a.afm'
p3728
aS'D:\\DATUMARO\\trabajo\\programas_repositorio\\integrador\\tags\\current\\standalone exes\\mpl-data\\fonts\\pdfcorefonts\\Courier-Oblique.afm'
p3729
aS'D:\\DATUMARO\\trabajo\\programas_repositorio\\integrador\\tags\\current\\standalone exes\\mpl-data\\fonts\\afm\\cmr10.afm'
p3730
aS'D:\\DATUMARO\\trabajo\\programas_repositorio\\integrador\\tags\\current\\standalone exes\\mpl-data\\fonts\\pdfcorefonts\\Times-Bold.afm'
p3731
aS'D:\\DATUMARO\\trabajo\\programas_repositorio\\integrador\\tags\\current\\standalone exes\\mpl-data\\fonts\\afm\\phvbo8a.afm'
p3732
aS'D:\\DATUMARO\\trabajo\\programas_repositorio\\integrador\\tags\\current\\standalone exes\\mpl-data\\fonts\\afm\\pzcmi8a.afm'
p3733
aS'D:\\DATUMARO\\trabajo\\programas_repositorio\\integrador\\tags\\current\\standalone exes\\mpl-data\\fonts\\afm\\phvbo8an.afm'
p3734
aS'D:\\DATUMARO\\trabajo\\programas_repositorio\\integrador\\tags\\current\\standalone exes\\mpl-data\\fonts\\afm\\phvl8a.afm'
p3735
aS'D:\\DATUMARO\\trabajo\\programas_repositorio\\integrador\\tags\\current\\standalone exes\\mpl-data\\fonts\\pdfcorefonts\\ZapfDingbats.afm'
p3736
aS'D:\\DATUMARO\\trabajo\\programas_repositorio\\integrador\\tags\\current\\standalone exes\\mpl-data\\fonts\\afm\\ptmri8a.afm'
p3737
aS'D:\\DATUMARO\\trabajo\\programas_repositorio\\integrador\\tags\\current\\standalone exes\\mpl-data\\fonts\\afm\\pncb8a.afm'
p3738
aS'D:\\DATUMARO\\trabajo\\programas_repositorio\\integrador\\tags\\current\\standalone exes\\mpl-data\\fonts\\afm\\pcrro8a.afm'
p3739
aS'D:\\DATUMARO\\trabajo\\programas_repositorio\\integrador\\tags\\current\\standalone exes\\mpl-data\\fonts\\afm\\putb8a.afm'
p3740
aS'D:\\DATUMARO\\trabajo\\programas_repositorio\\integrador\\tags\\current\\standalone exes\\mpl-data\\fonts\\pdfcorefonts\\Courier.afm'
p3741
aS'D:\\DATUMARO\\trabajo\\programas_repositorio\\integrador\\tags\\current\\standalone exes\\mpl-data\\fonts\\afm\\pncri8a.afm'
p3742
aS'D:\\DATUMARO\\trabajo\\programas_repositorio\\integrador\\tags\\current\\standalone exes\\mpl-data\\fonts\\afm\\phvb8a.afm'
p3743
aS'D:\\DATUMARO\\trabajo\\programas_repositorio\\integrador\\tags\\current\\standalone exes\\mpl-data\\fonts\\pdfcorefonts\\Times-BoldItalic.afm'
p3744
aS'D:\\DATUMARO\\trabajo\\programas_repositorio\\integrador\\tags\\current\\standalone exes\\mpl-data\\fonts\\afm\\cmtt10.afm'
p3745
aS'D:\\DATUMARO\\trabajo\\programas_repositorio\\integrador\\tags\\current\\standalone exes\\mpl-data\\fonts\\afm\\pagd8a.afm'
p3746
aS'D:\\DATUMARO\\trabajo\\programas_repositorio\\integrador\\tags\\current\\standalone exes\\mpl-data\\fonts\\afm\\pagk8a.afm'
p3747
aS'D:\\DATUMARO\\trabajo\\programas_repositorio\\integrador\\tags\\current\\standalone exes\\mpl-data\\fonts\\pdfcorefonts\\Courier-BoldOblique.afm'
p3748
aS'D:\\DATUMARO\\trabajo\\programas_repositorio\\integrador\\tags\\current\\standalone exes\\mpl-data\\fonts\\afm\\cmmi10.afm'
p3749
asS'afmlist'
p3750
(lp3751
g7
(g8
g9
NtRp3752
(dp3753
g12
g18
sg14
S'ITC Bookman'
p3754
sg16
I600
sg17
g18
sg19
g18
sg20
g3690
sg22
g23
sbag7
(g8
g9
NtRp3755
(dp3756
g12
g70
sg14
S'New Century Schoolbook'
p3757
sg16
I700
sg17
g18
sg19
g18
sg20
g3691
sg22
g23
sbag7
(g8
g9
NtRp3758
(dp3759
g12
g18
sg14
S'Helvetica'
p3760
sg16
I500
sg17
g18
sg19
g18
sg20
g3692
sg22
g23
sbag7
(g8
g9
NtRp3761
(dp3762
g12
g18
sg14
S'Helvetica'
p3763
sg16
I500
sg17
g18
sg19
g18
sg20
g3693
sg22
g23
sbag7
(g8
g9
NtRp3764
(dp3765
g12
g18
sg14
S'Helvetica'
p3766
sg16
I700
sg17
g18
sg19
g18
sg20
g3694
sg22
g23
sbag7
(g8
g9
NtRp3767
(dp3768
g12
g18
sg14
S'Palatino'
p3769
sg16
I700
sg17
g18
sg19
g18
sg20
g3695
sg22
g23
sbag7
(g8
g9
NtRp3770
(dp3771
g12
g70
sg14
S'Palatino'
p3772
sg16
I700
sg17
g18
sg19
g18
sg20
g3696
sg22
g23
sbag7
(g8
g9
NtRp3773
(dp3774
g12
g18
sg14
S'Courier'
p3775
sg16
I700
sg17
g18
sg19
g18
sg20
g3697
sg22
g23
sbag7
(g8
g9
NtRp3776
(dp3777
g12
g18
sg14
S'ITC Bookman'
p3778
sg16
I200
sg17
g18
sg19
g18
sg20
g3698
sg22
g23
sbag7
(g8
g9
NtRp3779
(dp3780
g12
g70
sg14
S'Times'
p3781
sg16
I700
sg17
g18
sg19
g18
sg20
g3699
sg22
g23
sbag7
(g8
g9
NtRp3782
(dp3783
g12
g70
sg14
S'ITC Bookman'
p3784
sg16
I600
sg17
g18
sg19
g18
sg20
g3700
sg22
g23
sbag7
(g8
g9
NtRp3785
(dp3786
g12
g18
sg14
S'New Century Schoolbook'
p3787
sg16
I500
sg17
g18
sg19
g18
sg20
g3701
sg22
g23
sbag7
(g8
g9
NtRp3788
(dp3789
g12
g18
sg14
S'Helvetica'
p3790
sg16
I700
sg17
g248
sg19
g18
sg20
g3702
sg22
g23
sbag7
(g8
g9
NtRp3791
(dp3792
g12
g18
sg14
S'Utopia'
p3793
sg16
I400
sg17
g18
sg19
g18
sg20
g3703
sg22
g23
sbag7
(g8
g9
NtRp3794
(dp3795
g12
g70
sg14
S'Palatino'
p3796
sg16
I500
sg17
g18
sg19
g18
sg20
g3704
sg22
g23
sbag7
(g8
g9
NtRp3797
(dp3798
g12
g18
sg14
S'ITC Zapf Dingbats'
p3799
sg16
I500
sg17
g18
sg19
g18
sg20
g3705
sg22
g23
sbag7
(g8
g9
NtRp3800
(dp3801
g12
g70
sg14
S'Helvetica'
p3802
sg16
I500
sg17
g18
sg19
g18
sg20
g3706
sg22
g23
sbag7
(g8
g9
NtRp3803
(dp3804
g12
g70
sg14
S'ITC Avant Garde Gothic'
p3805
sg16
I400
sg17
g18
sg19
g18
sg20
g3707
sg22
g23
sbag7
(g8
g9
NtRp3806
(dp3807
g12
g70
sg14
S'Helvetica'
p3808
sg16
I500
sg17
g18
sg19
g18
sg20
g3708
sg22
g23
sbag7
(g8
g9
NtRp3809
(dp3810
g12
g18
sg14
S'Helvetica'
p3811
sg16
I500
sg17
g248
sg19
g18
sg20
g3709
sg22
g23
sbag7
(g8
g9
NtRp3812
(dp3813
g12
g70
sg14
S'Courier'
p3814
sg16
I700
sg17
g18
sg19
g18
sg20
g3710
sg22
g23
sbag7
(g8
g9
NtRp3815
(dp3816
g12
g18
sg14
S'Symbol'
p3817
sg16
I500
sg17
g18
sg19
g18
sg20
g3711
sg22
g23
sbag7
(g8
g9
NtRp3818
(dp3819
g12
g18
sg14
S'Times'
p3820
sg16
I500
sg17
g18
sg19
g18
sg20
g3712
sg22
g23
sbag7
(g8
g9
NtRp3821
(dp3822
g12
g70
sg14
S'Helvetica'
p3823
sg16
I700
sg17
g18
sg19
g18
sg20
g3713
sg22
g23
sbag7
(g8
g9
NtRp3824
(dp3825
g12
g70
sg14
S'Utopia'
p3826
sg16
I400
sg17
g18
sg19
g18
sg20
g3714
sg22
g23
sbag7
(g8
g9
NtRp3827
(dp3828
g12
g70
sg14
S'Helvetica'
p3829
sg16
I200
sg17
g18
sg19
g18
sg20
g3715
sg22
g23
sbag7
(g8
g9
NtRp3830
(dp3831
g12
g18
sg14
S'Palatino'
p3832
sg16
I500
sg17
g18
sg19
g18
sg20
g3716
sg22
g23
sbag7
(g8
g9
NtRp3833
(dp3834
g12
g70
sg14
S'Computer Modern'
p3835
sg16
I500
sg17
g18
sg19
g18
sg20
g3717
sg22
g23
sbag7
(g8
g9
NtRp3836
(dp3837
g12
g70
sg14
S'ITC Bookman'
p3838
sg16
I200
sg17
g18
sg19
g18
sg20
g3718
sg22
g23
sbag7
(g8
g9
NtRp3839
(dp3840
g12
g18
sg14
S'Courier'
p3841
sg16
I500
sg17
g18
sg19
g18
sg20
g3719
sg22
g23
sbag7
(g8
g9
NtRp3842
(dp3843
g12
g18
sg14
S'Times'
p3844
sg16
I500
sg17
g18
sg19
g18
sg20
g3720
sg22
g23
sbag7
(g8
g9
NtRp3845
(dp3846
g12
g70
sg14
S'ITC Avant Garde Gothic'
p3847
sg16
I600
sg17
g18
sg19
g18
sg20
g3721
sg22
g23
sbag7
(g8
g9
NtRp3848
(dp3849
g12
g18
sg14
S'Computer Modern'
p3850
sg16
I500
sg17
g18
sg19
g18
sg20
g3722
sg22
g23
sbag7
(g8
g9
NtRp3851
(dp3852
g12
g70
sg14
S'Utopia'
p3853
sg16
I700
sg17
g18
sg19
g18
sg20
g3723
sg22
g23
sbag7
(g8
g9
NtRp3854
(dp3855
g12
g18
sg14
S'Symbol'
p3856
sg16
I500
sg17
g18
sg19
g18
sg20
g3724
sg22
g23
sbag7
(g8
g9
NtRp3857
(dp3858
g12
g70
sg14
S'Helvetica'
p3859
sg16
I500
sg17
g248
sg19
g18
sg20
g3725
sg22
g23
sbag7
(g8
g9
NtRp3860
(dp3861
g12
g70
sg14
S'Times'
p3862
sg16
I500
sg17
g18
sg19
g18
sg20
g3726
sg22
g23
sbag7
(g8
g9
NtRp3863
(dp3864
g12
g18
sg14
S'Courier'
p3865
sg16
I700
sg17
g18
sg19
g18
sg20
g3727
sg22
g23
sbag7
(g8
g9
NtRp3866
(dp3867
g12
g18
sg14
S'Times'
p3868
sg16
I700
sg17
g18
sg19
g18
sg20
g3728
sg22
g23
sbag7
(g8
g9
NtRp3869
(dp3870
g12
g70
sg14
S'Courier'
p3871
sg16
I500
sg17
g18
sg19
g18
sg20
g3729
sg22
g23
sbag7
(g8
g9
NtRp3872
(dp3873
g12
g18
sg14
S'Computer Modern'
p3874
sg16
I500
sg17
g18
sg19
g18
sg20
g3730
sg22
g23
sbag7
(g8
g9
NtRp3875
(dp3876
g12
g18
sg14
S'Times'
p3877
sg16
I700
sg17
g18
sg19
g18
sg20
g3731
sg22
g23
sbag7
(g8
g9
NtRp3878
(dp3879
g12
g70
sg14
S'Helvetica'
p3880
sg16
I700
sg17
g18
sg19
g18
sg20
g3732
sg22
g23
sbag7
(g8
g9
NtRp3881
(dp3882
g12
g70
sg14
S'ITC Zapf Chancery'
p3883
sg16
I500
sg17
g18
sg19
g18
sg20
g3733
sg22
g23
sbag7
(g8
g9
NtRp3884
(dp3885
g12
g70
sg14
S'Helvetica'
p3886
sg16
I700
sg17
g248
sg19
g18
sg20
g3734
sg22
g23
sbag7
(g8
g9
NtRp3887
(dp3888
g12
g18
sg14
S'Helvetica'
p3889
sg16
I200
sg17
g18
sg19
g18
sg20
g3735
sg22
g23
sbag7
(g8
g9
NtRp3890
(dp3891
g12
g18
sg14
S'ZapfDingbats'
p3892
sg16
I500
sg17
g18
sg19
g18
sg20
g3736
sg22
g23
sbag7
(g8
g9
NtRp3893
(dp3894
g12
g70
sg14
S'Times'
p3895
sg16
I500
sg17
g18
sg19
g18
sg20
g3737
sg22
g23
sbag7
(g8
g9
NtRp3896
(dp3897
g12
g18
sg14
S'New Century Schoolbook'
p3898
sg16
I700
sg17
g18
sg19
g18
sg20
g3738
sg22
g23
sbag7
(g8
g9
NtRp3899
(dp3900
g12
g70
sg14
S'Courier'
p3901
sg16
I500
sg17
g18
sg19
g18
sg20
g3739
sg22
g23
sbag7
(g8
g9
NtRp3902
(dp3903
g12
g18
sg14
S'Utopia'
p3904
sg16
I700
sg17
g18
sg19
g18
sg20
g3740
sg22
g23
sbag7
(g8
g9
NtRp3905
(dp3906
g12
g18
sg14
S'Courier'
p3907
sg16
I500
sg17
g18
sg19
g18
sg20
g3741
sg22
g23
sbag7
(g8
g9
NtRp3908
(dp3909
g12
g70
sg14
S'New Century Schoolbook'
p3910
sg16
I500
sg17
g18
sg19
g18
sg20
g3742
sg22
g23
sbag7
(g8
g9
NtRp3911
(dp3912
g12
g18
sg14
S'Helvetica'
p3913
sg16
I700
sg17
g18
sg19
g18
sg20
g3743
sg22
g23
sbag7
(g8
g9
NtRp3914
(dp3915
g12
g70
sg14
S'Times'
p3916
sg16
I700
sg17
g18
sg19
g18
sg20
g3744
sg22
g23
sbag7
(g8
g9
NtRp3917
(dp3918
g12
g18
sg14
S'Computer Modern'
p3919
sg16
I500
sg17
g18
sg19
g18
sg20
g3745
sg22
g23
sbag7
(g8
g9
NtRp3920
(dp3921
g12
g18
sg14
S'ITC Avant Garde Gothic'
p3922
sg16
I600
sg17
g18
sg19
g18
sg20
g3746
sg22
g23
sbag7
(g8
g9
NtRp3923
(dp3924
g12
g18
sg14
S'ITC Avant Garde Gothic'
p3925
sg16
I400
sg17
g18
sg19
g18
sg20
g3747
sg22
g23
sbag7
(g8
g9
NtRp3926
(dp3927
g12
g70
sg14
S'Courier'
p3928
sg16
I700
sg17
g18
sg19
g18
sg20
g3748
sg22
g23
sbag7
(g8
g9
NtRp3929
(dp3930
g12
g70
sg14
S'Computer Modern'
p3931
sg16
I500
sg17
g18
sg19
g18
sg20
g3749
sg22
g23
sbasb.